ARM GAS  C:\Users\GIANLU~1\AppData\Local\Temp\cc5LPm7e.s 			page 1


   1              		.syntax unified
   2              		.cpu cortex-m0
   3              		.fpu softvfp
   4              		.eabi_attribute 20, 1
   5              		.eabi_attribute 21, 1
   6              		.eabi_attribute 23, 3
   7              		.eabi_attribute 24, 1
   8              		.eabi_attribute 25, 1
   9              		.eabi_attribute 26, 1
  10              		.eabi_attribute 30, 1
  11              		.eabi_attribute 34, 0
  12              		.eabi_attribute 18, 4
  13              		.thumb
  14              		.syntax unified
  15              		.file	"main.c"
  16              		.text
  17              	.Ltext0:
  18              		.cfi_sections	.debug_frame
  19              		.section	.text.SysTick_Handler,"ax",%progbits
  20              		.align	2
  21              		.global	SysTick_Handler
  22              		.code	16
  23              		.thumb_func
  24              		.type	SysTick_Handler, %function
  25              	SysTick_Handler:
  26              	.LFB35:
  27              		.file 1 "main.c"
   1:main.c        **** #include <global.h>
   2:main.c        **** 
   3:main.c        **** #define SEND_INTERVAL 1000
   4:main.c        **** 
   5:main.c        **** /* Variabili globali */
   6:main.c        **** #define PERIOD 10000   // USA NUMERI PARI
   7:main.c        **** #define W_BRIGHT 500  // MAX PERIOD / 2
   8:main.c        **** #define R_BRIGHT 500  // MAX PERIOD / 2
   9:main.c        **** 
  10:main.c        **** volatile uint32_t msTicks = 0;  // Variabile globale per il conteggio dei millisecondi
  11:main.c        **** volatile uint32_t msCont = 0;  // Variabile globale per il conteggio dei millisecondi
  12:main.c        **** uint32_t lastTime = 0;
  13:main.c        **** uint32_t lastTime2 = 0;
  14:main.c        **** char myString[25];
  15:main.c        **** 
  16:main.c        **** // struttura che contiene un bitfield per pilotare i LED
  17:main.c        **** typedef struct {
  18:main.c        ****     uint8_t led0 : 1;
  19:main.c        ****     uint8_t led1 : 1;
  20:main.c        ****     uint8_t led2 : 1;
  21:main.c        ****     uint8_t led3 : 1;
  22:main.c        ****     uint8_t led4 : 1;
  23:main.c        ****     uint8_t led5 : 1;
  24:main.c        ****     uint8_t led6 : 1;
  25:main.c        ****     uint8_t led7 : 1;
  26:main.c        ****     uint8_t led8 : 1;
  27:main.c        ****     uint8_t led9 : 1;
  28:main.c        ****     uint8_t ledA : 1;
  29:main.c        ****     uint8_t ledB : 1;
  30:main.c        ****     uint8_t ledC : 1;
ARM GAS  C:\Users\GIANLU~1\AppData\Local\Temp\cc5LPm7e.s 			page 2


  31:main.c        ****     uint8_t ledD : 1;
  32:main.c        ****     uint8_t ledE : 1;
  33:main.c        ****     uint8_t ledF : 1;
  34:main.c        ****     }my_bits;
  35:main.c        **** 
  36:main.c        **** // union per accedere ai led sia bit a bit sia a blocchi
  37:main.c        **** union my_LEDS {
  38:main.c        ****     my_bits bit;
  39:main.c        ****     uint16_t data;
  40:main.c        ****     } LED_W, LED_R;
  41:main.c        **** 
  42:main.c        **** /* prototipi delle funzioni */
  43:main.c        **** CY_ISR_PROTO(driveLED_W);
  44:main.c        **** CY_ISR_PROTO(driveLED_R);
  45:main.c        **** CY_ISR_PROTO(driveLED_OFF);
  46:main.c        **** void SysTick_Handler(void);
  47:main.c        **** 
  48:main.c        **** int main() {
  49:main.c        ****     // Inizializza UART
  50:main.c        ****     UART_Start();
  51:main.c        **** 
  52:main.c        ****     // Inizializzo il PWM_W
  53:main.c        ****     PWM_W_WritePeriod(PERIOD);
  54:main.c        ****     PWM_R_WritePeriod(PERIOD);
  55:main.c        ****     PWM_W_WriteCounter(0000);
  56:main.c        ****     PWM_R_WriteCounter(PERIOD / 2);
  57:main.c        ****     PWM_W_Start();
  58:main.c        ****     PWM_R_Start();
  59:main.c        **** 
  60:main.c        ****     // Inizializza SysTick per generare interrupt ogni 1 ms
  61:main.c        ****     CySysTickStart();
  62:main.c        ****     CySysTickSetCallback(0, SysTick_Handler);  // Associa il gestore dell'interrupt
  63:main.c        **** 
  64:main.c        ****     /// inizializzo gli interupt
  65:main.c        ****     ISR_R_StartEx(driveLED_R);
  66:main.c        ****     ISR_W_StartEx(driveLED_W);
  67:main.c        ****     ISR_W0_StartEx(driveLED_OFF);
  68:main.c        ****     ISR_R0_StartEx(driveLED_OFF);
  69:main.c        **** 
  70:main.c        ****     // setto i valori iniziali dei counter dei PWM dei LED
  71:main.c        ****     PWM_W_WriteCounter(0000);
  72:main.c        ****     PWM_R_WriteCounter(5000);
  73:main.c        **** 
  74:main.c        ****     // Abilita interrupt globali
  75:main.c        ****     CyGlobalIntEnable;
  76:main.c        **** 
  77:main.c        ****     // quali LEDS accendo?
  78:main.c        ****     LED_W.data = 0;
  79:main.c        ****     LED_R.data = 0xFFFF;
  80:main.c        **** 
  81:main.c        ****     while (1) {
  82:main.c        ****         // ciclo eseguito ad ogni 1000 millisecondi
  83:main.c        ****         if ((msTicks - lastTime2) >= SEND_INTERVAL/10) {
  84:main.c        ****             lastTime2 = msTicks;
  85:main.c        ****             LED_W.data++;
  86:main.c        ****             LED_R.data--;
  87:main.c        ****             }
ARM GAS  C:\Users\GIANLU~1\AppData\Local\Temp\cc5LPm7e.s 			page 3


  88:main.c        ****         if ((msTicks - lastTime) >= SEND_INTERVAL) {
  89:main.c        ****             lastTime = msTicks;
  90:main.c        ****             LED_W.bit.led3 = !LED_W.bit.led3;
  91:main.c        ****             sprintf(myString, "Millis: %ldms.\n", msTicks);  // <Stampa il valore di msTicks       
  92:main.c        ****             UART_UartPutString(myString);  // <Stampa il valore di msTicks>
  93:main.c        ****             LED_W.data++;
  94:main.c        ****             LED_R.data--;
  95:main.c        ****             }
  96:main.c        ****         // verifica della connessione seriale
  97:main.c        ****         while (dataAvailable) {
  98:main.c        ****             static int i = 0;
  99:main.c        ****             uint8_t receivedByte = UART_UartGetChar();
 100:main.c        ****             if (receivedByte == 0) break;  // Se il carattere ricevuto e' 0, esce dal while
 101:main.c        ****             myString[i++] = receivedByte;
 102:main.c        ****             // UART_UartPutChar(receivedByte);  // Echo del carattere ricevuto.
 103:main.c        ****             }
 104:main.c        ****         }
 105:main.c        ****     }  // fine del main principale
 106:main.c        **** 
 107:main.c        **** 
 108:main.c        **** // Funzione chiamata dall'interrupt SysTick ogni millisecondo
 109:main.c        **** void SysTick_Handler(void) {
  28              		.loc 1 109 0
  29              		.cfi_startproc
  30              		@ args = 0, pretend = 0, frame = 0
  31              		@ frame_needed = 0, uses_anonymous_args = 0
  32              		@ link register save eliminated.
 110:main.c        ****     msTicks++;  // Incrementa il contatore dei millisecondi
  33              		.loc 1 110 0
  34 0000 024A     		ldr	r2, .L2
  35 0002 1368     		ldr	r3, [r2]
  36 0004 0133     		adds	r3, r3, #1
  37 0006 1360     		str	r3, [r2]
 111:main.c        ****     }
  38              		.loc 1 111 0
  39              		@ sp needed
  40 0008 7047     		bx	lr
  41              	.L3:
  42 000a C046     		.align	2
  43              	.L2:
  44 000c 00000000 		.word	.LANCHOR0
  45              		.cfi_endproc
  46              	.LFE35:
  47              		.size	SysTick_Handler, .-SysTick_Handler
  48              		.section	.text.driveLED_W,"ax",%progbits
  49              		.align	2
  50              		.global	driveLED_W
  51              		.code	16
  52              		.thumb_func
  53              		.type	driveLED_W, %function
  54              	driveLED_W:
  55              	.LFB36:
 112:main.c        **** 
 113:main.c        **** 
 114:main.c        **** CY_ISR(driveLED_W) {
  56              		.loc 1 114 0
  57              		.cfi_startproc
ARM GAS  C:\Users\GIANLU~1\AppData\Local\Temp\cc5LPm7e.s 			page 4


  58              		@ args = 0, pretend = 0, frame = 0
  59              		@ frame_needed = 0, uses_anonymous_args = 0
  60 0000 10B5     		push	{r4, lr}
  61              		.cfi_def_cfa_offset 8
  62              		.cfi_offset 4, -8
  63              		.cfi_offset 14, -4
 115:main.c        ****     /* Clear pending Interrupt */
 116:main.c        ****     (LED_W.bit.led1) ? LED_1_Write(0) : LED_1_Write(1);
  64              		.loc 1 116 0
  65 0002 354B     		ldr	r3, .L23
  66 0004 1B78     		ldrb	r3, [r3]
  67 0006 9B07     		lsls	r3, r3, #30
  68 0008 03D5     		bpl	.L5
  69              		.loc 1 116 0 is_stmt 0 discriminator 1
  70 000a 0020     		movs	r0, #0
  71 000c FFF7FEFF 		bl	LED_1_Write
  72              	.LVL0:
  73 0010 02E0     		b	.L6
  74              	.L5:
  75              		.loc 1 116 0 discriminator 2
  76 0012 0120     		movs	r0, #1
  77 0014 FFF7FEFF 		bl	LED_1_Write
  78              	.LVL1:
  79              	.L6:
 117:main.c        ****     (LED_W.bit.led2) ? LED_2_Write(0) : LED_2_Write(1);
  80              		.loc 1 117 0 is_stmt 1
  81 0018 2F4B     		ldr	r3, .L23
  82 001a 1B78     		ldrb	r3, [r3]
  83 001c 5B07     		lsls	r3, r3, #29
  84 001e 03D5     		bpl	.L7
  85              		.loc 1 117 0 is_stmt 0 discriminator 1
  86 0020 0020     		movs	r0, #0
  87 0022 FFF7FEFF 		bl	LED_2_Write
  88              	.LVL2:
  89 0026 02E0     		b	.L8
  90              	.L7:
  91              		.loc 1 117 0 discriminator 2
  92 0028 0120     		movs	r0, #1
  93 002a FFF7FEFF 		bl	LED_2_Write
  94              	.LVL3:
  95              	.L8:
 118:main.c        ****     (LED_W.bit.led3) ? LED_3_Write(0) : LED_3_Write(1);
  96              		.loc 1 118 0 is_stmt 1
  97 002e 2A4B     		ldr	r3, .L23
  98 0030 1B78     		ldrb	r3, [r3]
  99 0032 1B07     		lsls	r3, r3, #28
 100 0034 03D5     		bpl	.L9
 101              		.loc 1 118 0 is_stmt 0 discriminator 1
 102 0036 0020     		movs	r0, #0
 103 0038 FFF7FEFF 		bl	LED_3_Write
 104              	.LVL4:
 105 003c 02E0     		b	.L10
 106              	.L9:
 107              		.loc 1 118 0 discriminator 2
 108 003e 0120     		movs	r0, #1
 109 0040 FFF7FEFF 		bl	LED_3_Write
 110              	.LVL5:
ARM GAS  C:\Users\GIANLU~1\AppData\Local\Temp\cc5LPm7e.s 			page 5


 111              	.L10:
 119:main.c        ****     (LED_W.bit.led4) ? LED_4_Write(0) : LED_4_Write(1);
 112              		.loc 1 119 0 is_stmt 1
 113 0044 244B     		ldr	r3, .L23
 114 0046 1B78     		ldrb	r3, [r3]
 115 0048 DB06     		lsls	r3, r3, #27
 116 004a 03D5     		bpl	.L11
 117              		.loc 1 119 0 is_stmt 0 discriminator 1
 118 004c 0020     		movs	r0, #0
 119 004e FFF7FEFF 		bl	LED_4_Write
 120              	.LVL6:
 121 0052 02E0     		b	.L12
 122              	.L11:
 123              		.loc 1 119 0 discriminator 2
 124 0054 0120     		movs	r0, #1
 125 0056 FFF7FEFF 		bl	LED_4_Write
 126              	.LVL7:
 127              	.L12:
 120:main.c        ****     (LED_W.bit.led5) ? LED_5_Write(0) : LED_5_Write(1);
 128              		.loc 1 120 0 is_stmt 1
 129 005a 1F4B     		ldr	r3, .L23
 130 005c 1B78     		ldrb	r3, [r3]
 131 005e 9B06     		lsls	r3, r3, #26
 132 0060 03D5     		bpl	.L13
 133              		.loc 1 120 0 is_stmt 0 discriminator 1
 134 0062 0020     		movs	r0, #0
 135 0064 FFF7FEFF 		bl	LED_5_Write
 136              	.LVL8:
 137 0068 02E0     		b	.L14
 138              	.L13:
 139              		.loc 1 120 0 discriminator 2
 140 006a 0120     		movs	r0, #1
 141 006c FFF7FEFF 		bl	LED_5_Write
 142              	.LVL9:
 143              	.L14:
 121:main.c        ****     (LED_W.bit.led6) ? LED_6_Write(0) : LED_6_Write(1);
 144              		.loc 1 121 0 is_stmt 1
 145 0070 194B     		ldr	r3, .L23
 146 0072 1B78     		ldrb	r3, [r3]
 147 0074 5B06     		lsls	r3, r3, #25
 148 0076 03D5     		bpl	.L15
 149              		.loc 1 121 0 is_stmt 0 discriminator 1
 150 0078 0020     		movs	r0, #0
 151 007a FFF7FEFF 		bl	LED_6_Write
 152              	.LVL10:
 153 007e 02E0     		b	.L16
 154              	.L15:
 155              		.loc 1 121 0 discriminator 2
 156 0080 0120     		movs	r0, #1
 157 0082 FFF7FEFF 		bl	LED_6_Write
 158              	.LVL11:
 159              	.L16:
 122:main.c        ****     (LED_W.bit.led7) ? LED_7_Write(0) : LED_7_Write(1);
 160              		.loc 1 122 0 is_stmt 1
 161 0086 144B     		ldr	r3, .L23
 162 0088 1B78     		ldrb	r3, [r3]
 163 008a 7F22     		movs	r2, #127
ARM GAS  C:\Users\GIANLU~1\AppData\Local\Temp\cc5LPm7e.s 			page 6


 164 008c 9343     		bics	r3, r2
 165 008e 03D0     		beq	.L17
 166              		.loc 1 122 0 is_stmt 0 discriminator 1
 167 0090 0020     		movs	r0, #0
 168 0092 FFF7FEFF 		bl	LED_7_Write
 169              	.LVL12:
 170 0096 02E0     		b	.L18
 171              	.L17:
 172              		.loc 1 122 0 discriminator 2
 173 0098 0120     		movs	r0, #1
 174 009a FFF7FEFF 		bl	LED_7_Write
 175              	.LVL13:
 176              	.L18:
 123:main.c        ****     (LED_W.bit.led8) ? LED_8_Write(0) : LED_8_Write(1);
 177              		.loc 1 123 0 is_stmt 1
 178 009e 0E4B     		ldr	r3, .L23
 179 00a0 5B78     		ldrb	r3, [r3, #1]
 180 00a2 DB07     		lsls	r3, r3, #31
 181 00a4 03D5     		bpl	.L19
 182              		.loc 1 123 0 is_stmt 0 discriminator 1
 183 00a6 0020     		movs	r0, #0
 184 00a8 FFF7FEFF 		bl	LED_8_Write
 185              	.LVL14:
 186 00ac 02E0     		b	.L20
 187              	.L19:
 188              		.loc 1 123 0 discriminator 2
 189 00ae 0120     		movs	r0, #1
 190 00b0 FFF7FEFF 		bl	LED_8_Write
 191              	.LVL15:
 192              	.L20:
 124:main.c        ****     (LED_W.bit.led9) ? LED_9_Write(0) : LED_9_Write(1);
 193              		.loc 1 124 0 is_stmt 1
 194 00b4 084B     		ldr	r3, .L23
 195 00b6 5B78     		ldrb	r3, [r3, #1]
 196 00b8 9B07     		lsls	r3, r3, #30
 197 00ba 03D5     		bpl	.L21
 198              		.loc 1 124 0 is_stmt 0 discriminator 1
 199 00bc 0020     		movs	r0, #0
 200 00be FFF7FEFF 		bl	LED_9_Write
 201              	.LVL16:
 202 00c2 02E0     		b	.L22
 203              	.L21:
 204              		.loc 1 124 0 discriminator 2
 205 00c4 0120     		movs	r0, #1
 206 00c6 FFF7FEFF 		bl	LED_9_Write
 207              	.LVL17:
 208              	.L22:
 125:main.c        ****     PWM_W_WriteCompare(W_BRIGHT);
 209              		.loc 1 125 0 is_stmt 1
 210 00ca FA20     		movs	r0, #250
 211 00cc 4000     		lsls	r0, r0, #1
 212 00ce FFF7FEFF 		bl	PWM_W_WriteCompare
 213              	.LVL18:
 126:main.c        ****     ISR_W_ClearPending();
 214              		.loc 1 126 0
 215 00d2 FFF7FEFF 		bl	ISR_W_ClearPending
 216              	.LVL19:
ARM GAS  C:\Users\GIANLU~1\AppData\Local\Temp\cc5LPm7e.s 			page 7


 127:main.c        ****     // msCont++;
 128:main.c        ****     }
 217              		.loc 1 128 0
 218              		@ sp needed
 219 00d6 10BD     		pop	{r4, pc}
 220              	.L24:
 221              		.align	2
 222              	.L23:
 223 00d8 00000000 		.word	LED_W
 224              		.cfi_endproc
 225              	.LFE36:
 226              		.size	driveLED_W, .-driveLED_W
 227              		.section	.text.driveLED_R,"ax",%progbits
 228              		.align	2
 229              		.global	driveLED_R
 230              		.code	16
 231              		.thumb_func
 232              		.type	driveLED_R, %function
 233              	driveLED_R:
 234              	.LFB37:
 129:main.c        **** 
 130:main.c        **** CY_ISR(driveLED_R) {
 235              		.loc 1 130 0
 236              		.cfi_startproc
 237              		@ args = 0, pretend = 0, frame = 0
 238              		@ frame_needed = 0, uses_anonymous_args = 0
 239 0000 10B5     		push	{r4, lr}
 240              		.cfi_def_cfa_offset 8
 241              		.cfi_offset 4, -8
 242              		.cfi_offset 14, -4
 131:main.c        ****     /* Clear pending Interrupt */
 132:main.c        ****     (LED_R.bit.led1) ? LED_1_Write(0) : LED_1_Write(1);
 243              		.loc 1 132 0
 244 0002 354B     		ldr	r3, .L44
 245 0004 1B78     		ldrb	r3, [r3]
 246 0006 9B07     		lsls	r3, r3, #30
 247 0008 03D5     		bpl	.L26
 248              		.loc 1 132 0 is_stmt 0 discriminator 1
 249 000a 0020     		movs	r0, #0
 250 000c FFF7FEFF 		bl	LED_1_Write
 251              	.LVL20:
 252 0010 02E0     		b	.L27
 253              	.L26:
 254              		.loc 1 132 0 discriminator 2
 255 0012 0120     		movs	r0, #1
 256 0014 FFF7FEFF 		bl	LED_1_Write
 257              	.LVL21:
 258              	.L27:
 133:main.c        ****     (LED_R.bit.led2) ? LED_2_Write(0) : LED_2_Write(1);
 259              		.loc 1 133 0 is_stmt 1
 260 0018 2F4B     		ldr	r3, .L44
 261 001a 1B78     		ldrb	r3, [r3]
 262 001c 5B07     		lsls	r3, r3, #29
 263 001e 03D5     		bpl	.L28
 264              		.loc 1 133 0 is_stmt 0 discriminator 1
 265 0020 0020     		movs	r0, #0
 266 0022 FFF7FEFF 		bl	LED_2_Write
ARM GAS  C:\Users\GIANLU~1\AppData\Local\Temp\cc5LPm7e.s 			page 8


 267              	.LVL22:
 268 0026 02E0     		b	.L29
 269              	.L28:
 270              		.loc 1 133 0 discriminator 2
 271 0028 0120     		movs	r0, #1
 272 002a FFF7FEFF 		bl	LED_2_Write
 273              	.LVL23:
 274              	.L29:
 134:main.c        ****     (LED_R.bit.led3) ? LED_3_Write(0) : LED_3_Write(1);
 275              		.loc 1 134 0 is_stmt 1
 276 002e 2A4B     		ldr	r3, .L44
 277 0030 1B78     		ldrb	r3, [r3]
 278 0032 1B07     		lsls	r3, r3, #28
 279 0034 03D5     		bpl	.L30
 280              		.loc 1 134 0 is_stmt 0 discriminator 1
 281 0036 0020     		movs	r0, #0
 282 0038 FFF7FEFF 		bl	LED_3_Write
 283              	.LVL24:
 284 003c 02E0     		b	.L31
 285              	.L30:
 286              		.loc 1 134 0 discriminator 2
 287 003e 0120     		movs	r0, #1
 288 0040 FFF7FEFF 		bl	LED_3_Write
 289              	.LVL25:
 290              	.L31:
 135:main.c        ****     (LED_R.bit.led4) ? LED_4_Write(0) : LED_4_Write(1);
 291              		.loc 1 135 0 is_stmt 1
 292 0044 244B     		ldr	r3, .L44
 293 0046 1B78     		ldrb	r3, [r3]
 294 0048 DB06     		lsls	r3, r3, #27
 295 004a 03D5     		bpl	.L32
 296              		.loc 1 135 0 is_stmt 0 discriminator 1
 297 004c 0020     		movs	r0, #0
 298 004e FFF7FEFF 		bl	LED_4_Write
 299              	.LVL26:
 300 0052 02E0     		b	.L33
 301              	.L32:
 302              		.loc 1 135 0 discriminator 2
 303 0054 0120     		movs	r0, #1
 304 0056 FFF7FEFF 		bl	LED_4_Write
 305              	.LVL27:
 306              	.L33:
 136:main.c        ****     (LED_R.bit.led5) ? LED_5_Write(0) : LED_5_Write(1);
 307              		.loc 1 136 0 is_stmt 1
 308 005a 1F4B     		ldr	r3, .L44
 309 005c 1B78     		ldrb	r3, [r3]
 310 005e 9B06     		lsls	r3, r3, #26
 311 0060 03D5     		bpl	.L34
 312              		.loc 1 136 0 is_stmt 0 discriminator 1
 313 0062 0020     		movs	r0, #0
 314 0064 FFF7FEFF 		bl	LED_5_Write
 315              	.LVL28:
 316 0068 02E0     		b	.L35
 317              	.L34:
 318              		.loc 1 136 0 discriminator 2
 319 006a 0120     		movs	r0, #1
 320 006c FFF7FEFF 		bl	LED_5_Write
ARM GAS  C:\Users\GIANLU~1\AppData\Local\Temp\cc5LPm7e.s 			page 9


 321              	.LVL29:
 322              	.L35:
 137:main.c        ****     (LED_R.bit.led6) ? LED_6_Write(0) : LED_6_Write(1);
 323              		.loc 1 137 0 is_stmt 1
 324 0070 194B     		ldr	r3, .L44
 325 0072 1B78     		ldrb	r3, [r3]
 326 0074 5B06     		lsls	r3, r3, #25
 327 0076 03D5     		bpl	.L36
 328              		.loc 1 137 0 is_stmt 0 discriminator 1
 329 0078 0020     		movs	r0, #0
 330 007a FFF7FEFF 		bl	LED_6_Write
 331              	.LVL30:
 332 007e 02E0     		b	.L37
 333              	.L36:
 334              		.loc 1 137 0 discriminator 2
 335 0080 0120     		movs	r0, #1
 336 0082 FFF7FEFF 		bl	LED_6_Write
 337              	.LVL31:
 338              	.L37:
 138:main.c        ****     (LED_R.bit.led7) ? LED_7_Write(0) : LED_7_Write(1);
 339              		.loc 1 138 0 is_stmt 1
 340 0086 144B     		ldr	r3, .L44
 341 0088 1B78     		ldrb	r3, [r3]
 342 008a 7F22     		movs	r2, #127
 343 008c 9343     		bics	r3, r2
 344 008e 03D0     		beq	.L38
 345              		.loc 1 138 0 is_stmt 0 discriminator 1
 346 0090 0020     		movs	r0, #0
 347 0092 FFF7FEFF 		bl	LED_7_Write
 348              	.LVL32:
 349 0096 02E0     		b	.L39
 350              	.L38:
 351              		.loc 1 138 0 discriminator 2
 352 0098 0120     		movs	r0, #1
 353 009a FFF7FEFF 		bl	LED_7_Write
 354              	.LVL33:
 355              	.L39:
 139:main.c        ****     (LED_R.bit.led8) ? LED_8_Write(0) : LED_8_Write(1);
 356              		.loc 1 139 0 is_stmt 1
 357 009e 0E4B     		ldr	r3, .L44
 358 00a0 5B78     		ldrb	r3, [r3, #1]
 359 00a2 DB07     		lsls	r3, r3, #31
 360 00a4 03D5     		bpl	.L40
 361              		.loc 1 139 0 is_stmt 0 discriminator 1
 362 00a6 0020     		movs	r0, #0
 363 00a8 FFF7FEFF 		bl	LED_8_Write
 364              	.LVL34:
 365 00ac 02E0     		b	.L41
 366              	.L40:
 367              		.loc 1 139 0 discriminator 2
 368 00ae 0120     		movs	r0, #1
 369 00b0 FFF7FEFF 		bl	LED_8_Write
 370              	.LVL35:
 371              	.L41:
 140:main.c        ****     (LED_R.bit.led9) ? LED_9_Write(0) : LED_9_Write(1);
 372              		.loc 1 140 0 is_stmt 1
 373 00b4 084B     		ldr	r3, .L44
ARM GAS  C:\Users\GIANLU~1\AppData\Local\Temp\cc5LPm7e.s 			page 10


 374 00b6 5B78     		ldrb	r3, [r3, #1]
 375 00b8 9B07     		lsls	r3, r3, #30
 376 00ba 03D5     		bpl	.L42
 377              		.loc 1 140 0 is_stmt 0 discriminator 1
 378 00bc 0020     		movs	r0, #0
 379 00be FFF7FEFF 		bl	LED_9_Write
 380              	.LVL36:
 381 00c2 02E0     		b	.L43
 382              	.L42:
 383              		.loc 1 140 0 discriminator 2
 384 00c4 0120     		movs	r0, #1
 385 00c6 FFF7FEFF 		bl	LED_9_Write
 386              	.LVL37:
 387              	.L43:
 141:main.c        ****     PWM_R_WriteCompare(R_BRIGHT);
 388              		.loc 1 141 0 is_stmt 1
 389 00ca FA20     		movs	r0, #250
 390 00cc 4000     		lsls	r0, r0, #1
 391 00ce FFF7FEFF 		bl	PWM_R_WriteCompare
 392              	.LVL38:
 142:main.c        ****     ISR_R_ClearPending();
 393              		.loc 1 142 0
 394 00d2 FFF7FEFF 		bl	ISR_R_ClearPending
 395              	.LVL39:
 143:main.c        ****     }
 396              		.loc 1 143 0
 397              		@ sp needed
 398 00d6 10BD     		pop	{r4, pc}
 399              	.L45:
 400              		.align	2
 401              	.L44:
 402 00d8 00000000 		.word	LED_R
 403              		.cfi_endproc
 404              	.LFE37:
 405              		.size	driveLED_R, .-driveLED_R
 406              		.section	.text.driveLED_OFF,"ax",%progbits
 407              		.align	2
 408              		.global	driveLED_OFF
 409              		.code	16
 410              		.thumb_func
 411              		.type	driveLED_OFF, %function
 412              	driveLED_OFF:
 413              	.LFB38:
 144:main.c        **** 
 145:main.c        **** CY_ISR(driveLED_OFF) {
 414              		.loc 1 145 0
 415              		.cfi_startproc
 416              		@ args = 0, pretend = 0, frame = 0
 417              		@ frame_needed = 0, uses_anonymous_args = 0
 418 0000 10B5     		push	{r4, lr}
 419              		.cfi_def_cfa_offset 8
 420              		.cfi_offset 4, -8
 421              		.cfi_offset 14, -4
 146:main.c        ****     /* Clear pending Interrupt */
 147:main.c        ****     LED_1_Write(1);
 422              		.loc 1 147 0
 423 0002 0120     		movs	r0, #1
ARM GAS  C:\Users\GIANLU~1\AppData\Local\Temp\cc5LPm7e.s 			page 11


 424 0004 FFF7FEFF 		bl	LED_1_Write
 425              	.LVL40:
 148:main.c        ****     LED_2_Write(1);
 426              		.loc 1 148 0
 427 0008 0120     		movs	r0, #1
 428 000a FFF7FEFF 		bl	LED_2_Write
 429              	.LVL41:
 149:main.c        ****     LED_3_Write(1);
 430              		.loc 1 149 0
 431 000e 0120     		movs	r0, #1
 432 0010 FFF7FEFF 		bl	LED_3_Write
 433              	.LVL42:
 150:main.c        ****     LED_4_Write(1);
 434              		.loc 1 150 0
 435 0014 0120     		movs	r0, #1
 436 0016 FFF7FEFF 		bl	LED_4_Write
 437              	.LVL43:
 151:main.c        ****     LED_5_Write(1);
 438              		.loc 1 151 0
 439 001a 0120     		movs	r0, #1
 440 001c FFF7FEFF 		bl	LED_5_Write
 441              	.LVL44:
 152:main.c        ****     LED_6_Write(1);
 442              		.loc 1 152 0
 443 0020 0120     		movs	r0, #1
 444 0022 FFF7FEFF 		bl	LED_6_Write
 445              	.LVL45:
 153:main.c        ****     LED_7_Write(1);
 446              		.loc 1 153 0
 447 0026 0120     		movs	r0, #1
 448 0028 FFF7FEFF 		bl	LED_7_Write
 449              	.LVL46:
 154:main.c        ****     LED_8_Write(1);
 450              		.loc 1 154 0
 451 002c 0120     		movs	r0, #1
 452 002e FFF7FEFF 		bl	LED_8_Write
 453              	.LVL47:
 155:main.c        ****     LED_9_Write(1);
 454              		.loc 1 155 0
 455 0032 0120     		movs	r0, #1
 456 0034 FFF7FEFF 		bl	LED_9_Write
 457              	.LVL48:
 156:main.c        ****     ISR_W0_ClearPending();
 458              		.loc 1 156 0
 459 0038 FFF7FEFF 		bl	ISR_W0_ClearPending
 460              	.LVL49:
 157:main.c        ****     ISR_R0_ClearPending();
 461              		.loc 1 157 0
 462 003c FFF7FEFF 		bl	ISR_R0_ClearPending
 463              	.LVL50:
 158:main.c        ****     }
 464              		.loc 1 158 0
 465              		@ sp needed
 466 0040 10BD     		pop	{r4, pc}
 467              		.cfi_endproc
 468              	.LFE38:
 469              		.size	driveLED_OFF, .-driveLED_OFF
ARM GAS  C:\Users\GIANLU~1\AppData\Local\Temp\cc5LPm7e.s 			page 12


 470              		.global	__aeabi_idiv
 471 0042 C046     		.section	.text.map,"ax",%progbits
 472              		.align	2
 473              		.global	map
 474              		.code	16
 475              		.thumb_func
 476              		.type	map, %function
 477              	map:
 478              	.LFB33:
 479              		.file 2 "./global.h"
   1:./global.h    **** #include <stdio.h>
   2:./global.h    **** #include <project.h>
   3:./global.h    **** 
   4:./global.h    **** #define dataAvailable  UART_SpiUartGetRxBufferSize()
   5:./global.h    **** 
   6:./global.h    **** #define LOW            0
   7:./global.h    **** #define HIGH           1
   8:./global.h    **** 
   9:./global.h    **** #define lowByte(w) ((uint8_t) ((w) & 0xff))
  10:./global.h    **** #define highByte(w) ((uint8_t) ((w) >> 8))
  11:./global.h    **** 
  12:./global.h    **** #define bitRead(value, bit) (((value) >> (bit)) & 0x01)
  13:./global.h    **** #define bitSet(value, bit) ((value) |= (1UL << (bit)))
  14:./global.h    **** #define bitClear(value, bit) ((value) &= ~(1UL << (bit)))
  15:./global.h    **** #define bitWrite(value, bit, bitvalue) (bitvalue ? bitSet(value, bit) : bitClear(value, bit))
  16:./global.h    **** uint16_t map(uint16_t x, uint16_t in_min, uint16_t in_max, uint16_t out_min, uint16_t out_max) {
 480              		.loc 2 16 0
 481              		.cfi_startproc
 482              		@ args = 4, pretend = 0, frame = 0
 483              		@ frame_needed = 0, uses_anonymous_args = 0
 484              	.LVL51:
 485 0000 10B5     		push	{r4, lr}
 486              		.cfi_def_cfa_offset 8
 487              		.cfi_offset 4, -8
 488              		.cfi_offset 14, -4
 489 0002 1C00     		movs	r4, r3
 490 0004 02AB     		add	r3, sp, #8
 491              	.LVL52:
 492 0006 1B88     		ldrh	r3, [r3]
 493              	.LVL53:
  17:./global.h    ****     return (x - in_min) * (out_max - out_min) / (in_max - in_min) + out_min;
 494              		.loc 2 17 0
 495 0008 401A     		subs	r0, r0, r1
 496              	.LVL54:
 497 000a 1B1B     		subs	r3, r3, r4
 498 000c 5843     		muls	r0, r3
 499 000e 511A     		subs	r1, r2, r1
 500              	.LVL55:
 501 0010 FFF7FEFF 		bl	__aeabi_idiv
 502              	.LVL56:
 503 0014 2018     		adds	r0, r4, r0
 504 0016 80B2     		uxth	r0, r0
  18:./global.h    ****     }...
 505              		.loc 2 18 0
 506              		@ sp needed
 507 0018 10BD     		pop	{r4, pc}
 508              		.cfi_endproc
ARM GAS  C:\Users\GIANLU~1\AppData\Local\Temp\cc5LPm7e.s 			page 13


 509              	.LFE33:
 510              		.size	map, .-map
 511 001a C046     		.section	.text.main,"ax",%progbits
 512              		.align	2
 513              		.global	main
 514              		.code	16
 515              		.thumb_func
 516              		.type	main, %function
 517              	main:
 518              	.LFB34:
  48:main.c        ****     // Inizializza UART
 519              		.loc 1 48 0
 520              		.cfi_startproc
 521              		@ args = 0, pretend = 0, frame = 0
 522              		@ frame_needed = 0, uses_anonymous_args = 0
 523 0000 70B5     		push	{r4, r5, r6, lr}
 524              		.cfi_def_cfa_offset 16
 525              		.cfi_offset 4, -16
 526              		.cfi_offset 5, -12
 527              		.cfi_offset 6, -8
 528              		.cfi_offset 14, -4
  50:main.c        **** 
 529              		.loc 1 50 0
 530 0002 FFF7FEFF 		bl	UART_Start
 531              	.LVL57:
  53:main.c        ****     PWM_R_WritePeriod(PERIOD);
 532              		.loc 1 53 0
 533 0006 3D4C     		ldr	r4, .L55
 534 0008 2000     		movs	r0, r4
 535 000a FFF7FEFF 		bl	PWM_W_WritePeriod
 536              	.LVL58:
  54:main.c        ****     PWM_W_WriteCounter(0000);
 537              		.loc 1 54 0
 538 000e 2000     		movs	r0, r4
 539 0010 FFF7FEFF 		bl	PWM_R_WritePeriod
 540              	.LVL59:
  55:main.c        ****     PWM_R_WriteCounter(PERIOD / 2);
 541              		.loc 1 55 0
 542 0014 0020     		movs	r0, #0
 543 0016 FFF7FEFF 		bl	PWM_W_WriteCounter
 544              	.LVL60:
  56:main.c        ****     PWM_W_Start();
 545              		.loc 1 56 0
 546 001a 394C     		ldr	r4, .L55+4
 547 001c 2000     		movs	r0, r4
 548 001e FFF7FEFF 		bl	PWM_R_WriteCounter
 549              	.LVL61:
  57:main.c        ****     PWM_R_Start();
 550              		.loc 1 57 0
 551 0022 FFF7FEFF 		bl	PWM_W_Start
 552              	.LVL62:
  58:main.c        **** 
 553              		.loc 1 58 0
 554 0026 FFF7FEFF 		bl	PWM_R_Start
 555              	.LVL63:
  61:main.c        ****     CySysTickSetCallback(0, SysTick_Handler);  // Associa il gestore dell'interrupt
 556              		.loc 1 61 0
ARM GAS  C:\Users\GIANLU~1\AppData\Local\Temp\cc5LPm7e.s 			page 14


 557 002a FFF7FEFF 		bl	CySysTickStart
 558              	.LVL64:
  62:main.c        **** 
 559              		.loc 1 62 0
 560 002e 3549     		ldr	r1, .L55+8
 561 0030 0020     		movs	r0, #0
 562 0032 FFF7FEFF 		bl	CySysTickSetCallback
 563              	.LVL65:
  65:main.c        ****     ISR_W_StartEx(driveLED_W);
 564              		.loc 1 65 0
 565 0036 3448     		ldr	r0, .L55+12
 566 0038 FFF7FEFF 		bl	ISR_R_StartEx
 567              	.LVL66:
  66:main.c        ****     ISR_W0_StartEx(driveLED_OFF);
 568              		.loc 1 66 0
 569 003c 3348     		ldr	r0, .L55+16
 570 003e FFF7FEFF 		bl	ISR_W_StartEx
 571              	.LVL67:
  67:main.c        ****     ISR_R0_StartEx(driveLED_OFF);
 572              		.loc 1 67 0
 573 0042 334D     		ldr	r5, .L55+20
 574 0044 2800     		movs	r0, r5
 575 0046 FFF7FEFF 		bl	ISR_W0_StartEx
 576              	.LVL68:
  68:main.c        **** 
 577              		.loc 1 68 0
 578 004a 2800     		movs	r0, r5
 579 004c FFF7FEFF 		bl	ISR_R0_StartEx
 580              	.LVL69:
  71:main.c        ****     PWM_R_WriteCounter(5000);
 581              		.loc 1 71 0
 582 0050 0020     		movs	r0, #0
 583 0052 FFF7FEFF 		bl	PWM_W_WriteCounter
 584              	.LVL70:
  72:main.c        **** 
 585              		.loc 1 72 0
 586 0056 2000     		movs	r0, r4
 587 0058 FFF7FEFF 		bl	PWM_R_WriteCounter
 588              	.LVL71:
  75:main.c        **** 
 589              		.loc 1 75 0
 590              		.syntax divided
 591              	@ 75 "main.c" 1
 592 005c 62B6     		CPSIE   i
 593              	@ 0 "" 2
  78:main.c        ****     LED_R.data = 0xFFFF;
 594              		.loc 1 78 0
 595              		.thumb
 596              		.syntax unified
 597 005e 0022     		movs	r2, #0
 598 0060 2C4B     		ldr	r3, .L55+24
 599 0062 1A80     		strh	r2, [r3]
  79:main.c        **** 
 600              		.loc 1 79 0
 601 0064 013A     		subs	r2, r2, #1
 602 0066 2C4B     		ldr	r3, .L55+28
 603 0068 1A80     		strh	r2, [r3]
ARM GAS  C:\Users\GIANLU~1\AppData\Local\Temp\cc5LPm7e.s 			page 15


 604              	.L54:
  83:main.c        ****             lastTime2 = msTicks;
 605              		.loc 1 83 0
 606 006a 2C4A     		ldr	r2, .L55+32
 607 006c 1368     		ldr	r3, [r2]
 608 006e 5268     		ldr	r2, [r2, #4]
 609 0070 9B1A     		subs	r3, r3, r2
 610 0072 632B     		cmp	r3, #99
 611 0074 0AD9     		bls	.L49
  84:main.c        ****             LED_W.data++;
 612              		.loc 1 84 0
 613 0076 294B     		ldr	r3, .L55+32
 614 0078 1A68     		ldr	r2, [r3]
 615 007a 5A60     		str	r2, [r3, #4]
  85:main.c        ****             LED_R.data--;
 616              		.loc 1 85 0
 617 007c 254A     		ldr	r2, .L55+24
 618 007e 1388     		ldrh	r3, [r2]
 619 0080 0133     		adds	r3, r3, #1
 620 0082 1380     		strh	r3, [r2]
  86:main.c        ****             }
 621              		.loc 1 86 0
 622 0084 244A     		ldr	r2, .L55+28
 623 0086 1388     		ldrh	r3, [r2]
 624 0088 013B     		subs	r3, r3, #1
 625 008a 1380     		strh	r3, [r2]
 626              	.L49:
  88:main.c        ****             lastTime = msTicks;
 627              		.loc 1 88 0
 628 008c 234A     		ldr	r2, .L55+32
 629 008e 1368     		ldr	r3, [r2]
 630 0090 9268     		ldr	r2, [r2, #8]
 631 0092 9B1A     		subs	r3, r3, r2
 632 0094 224A     		ldr	r2, .L55+36
 633 0096 9342     		cmp	r3, r2
 634 0098 2BD9     		bls	.L51
  89:main.c        ****             LED_W.bit.led3 = !LED_W.bit.led3;
 635              		.loc 1 89 0
 636 009a 2048     		ldr	r0, .L55+32
 637 009c 0368     		ldr	r3, [r0]
 638 009e 8360     		str	r3, [r0, #8]
  90:main.c        ****             sprintf(myString, "Millis: %ldms.\n", msTicks);  // <Stampa il valore di msTicks       
 639              		.loc 1 90 0
 640 00a0 1C4C     		ldr	r4, .L55+24
 641 00a2 2178     		ldrb	r1, [r4]
 642 00a4 CB08     		lsrs	r3, r1, #3
 643 00a6 0122     		movs	r2, #1
 644 00a8 5A40     		eors	r2, r3
 645 00aa 0123     		movs	r3, #1
 646 00ac 1A40     		ands	r2, r3
 647 00ae D200     		lsls	r2, r2, #3
 648 00b0 0733     		adds	r3, r3, #7
 649 00b2 9943     		bics	r1, r3
 650 00b4 0B00     		movs	r3, r1
 651 00b6 1343     		orrs	r3, r2
 652 00b8 2370     		strb	r3, [r4]
  91:main.c        ****             UART_UartPutString(myString);  // <Stampa il valore di msTicks>
ARM GAS  C:\Users\GIANLU~1\AppData\Local\Temp\cc5LPm7e.s 			page 16


 653              		.loc 1 91 0
 654 00ba 0268     		ldr	r2, [r0]
 655 00bc 194D     		ldr	r5, .L55+40
 656 00be 1A49     		ldr	r1, .L55+44
 657 00c0 2800     		movs	r0, r5
 658 00c2 FFF7FEFF 		bl	sprintf
 659              	.LVL72:
  92:main.c        ****             LED_W.data++;
 660              		.loc 1 92 0
 661 00c6 2800     		movs	r0, r5
 662 00c8 FFF7FEFF 		bl	UART_UartPutString
 663              	.LVL73:
  93:main.c        ****             LED_R.data--;
 664              		.loc 1 93 0
 665 00cc 2388     		ldrh	r3, [r4]
 666 00ce 0133     		adds	r3, r3, #1
 667 00d0 2380     		strh	r3, [r4]
  94:main.c        ****             }
 668              		.loc 1 94 0
 669 00d2 114A     		ldr	r2, .L55+28
 670 00d4 1388     		ldrh	r3, [r2]
 671 00d6 013B     		subs	r3, r3, #1
 672 00d8 1380     		strh	r3, [r2]
 673 00da 0AE0     		b	.L51
 674              	.L53:
 675              	.LBB2:
  99:main.c        ****             if (receivedByte == 0) break;  // Se il carattere ricevuto e' 0, esce dal while
 676              		.loc 1 99 0
 677 00dc FFF7FEFF 		bl	UART_UartGetChar
 678              	.LVL74:
 679 00e0 C0B2     		uxtb	r0, r0
 680              	.LVL75:
 100:main.c        ****             myString[i++] = receivedByte;
 681              		.loc 1 100 0
 682 00e2 0028     		cmp	r0, #0
 683 00e4 C1D0     		beq	.L54
 101:main.c        ****             // UART_UartPutChar(receivedByte);  // Echo del carattere ricevuto.
 684              		.loc 1 101 0
 685 00e6 0D4A     		ldr	r2, .L55+32
 686 00e8 D368     		ldr	r3, [r2, #12]
 687 00ea 591C     		adds	r1, r3, #1
 688 00ec D160     		str	r1, [r2, #12]
 689 00ee 0D4A     		ldr	r2, .L55+40
 690 00f0 D054     		strb	r0, [r2, r3]
 691              	.LVL76:
 692              	.L51:
 693              	.LBE2:
  97:main.c        ****             static int i = 0;
 694              		.loc 1 97 0
 695 00f2 FFF7FEFF 		bl	UART_SpiUartGetRxBufferSize
 696              	.LVL77:
 697 00f6 0028     		cmp	r0, #0
 698 00f8 F0D1     		bne	.L53
 699 00fa B6E7     		b	.L54
 700              	.L56:
 701              		.align	2
 702              	.L55:
ARM GAS  C:\Users\GIANLU~1\AppData\Local\Temp\cc5LPm7e.s 			page 17


 703 00fc 10270000 		.word	10000
 704 0100 88130000 		.word	5000
 705 0104 00000000 		.word	SysTick_Handler
 706 0108 00000000 		.word	driveLED_R
 707 010c 00000000 		.word	driveLED_W
 708 0110 00000000 		.word	driveLED_OFF
 709 0114 00000000 		.word	LED_W
 710 0118 00000000 		.word	LED_R
 711 011c 00000000 		.word	.LANCHOR0
 712 0120 E7030000 		.word	999
 713 0124 00000000 		.word	myString
 714 0128 00000000 		.word	.LC10
 715              		.cfi_endproc
 716              	.LFE34:
 717              		.size	main, .-main
 718              		.comm	LED_R,2,4
 719              		.comm	LED_W,2,4
 720              		.comm	myString,25,4
 721              		.global	lastTime2
 722              		.global	lastTime
 723              		.global	msCont
 724              		.global	msTicks
 725              		.section	.rodata.str1.4,"aMS",%progbits,1
 726              		.align	2
 727              	.LC10:
 728 0000 4D696C6C 		.ascii	"Millis: %ldms.\012\000"
 728      69733A20 
 728      256C646D 
 728      732E0A00 
 729              		.bss
 730              		.align	2
 731              		.set	.LANCHOR0,. + 0
 732              		.type	msTicks, %object
 733              		.size	msTicks, 4
 734              	msTicks:
 735 0000 00000000 		.space	4
 736              		.type	lastTime2, %object
 737              		.size	lastTime2, 4
 738              	lastTime2:
 739 0004 00000000 		.space	4
 740              		.type	lastTime, %object
 741              		.size	lastTime, 4
 742              	lastTime:
 743 0008 00000000 		.space	4
 744              		.type	i.7021, %object
 745              		.size	i.7021, 4
 746              	i.7021:
 747 000c 00000000 		.space	4
 748              		.type	msCont, %object
 749              		.size	msCont, 4
 750              	msCont:
 751 0010 00000000 		.space	4
 752              		.text
 753              	.Letext0:
 754              		.file 3 "c:\\program files (x86)\\cypress\\psoc creator\\4.4\\psoc creator\\import\\gnu\\arm\\5.4.
 755              		.file 4 "c:\\program files (x86)\\cypress\\psoc creator\\4.4\\psoc creator\\import\\gnu\\arm\\5.4.
 756              		.file 5 "Generated_Source\\PSoC4/LED_1.h"
ARM GAS  C:\Users\GIANLU~1\AppData\Local\Temp\cc5LPm7e.s 			page 18


 757              		.file 6 "Generated_Source\\PSoC4/LED_2.h"
 758              		.file 7 "Generated_Source\\PSoC4/LED_3.h"
 759              		.file 8 "Generated_Source\\PSoC4/LED_4.h"
 760              		.file 9 "Generated_Source\\PSoC4/LED_5.h"
 761              		.file 10 "Generated_Source\\PSoC4/LED_6.h"
 762              		.file 11 "Generated_Source\\PSoC4/LED_7.h"
 763              		.file 12 "Generated_Source\\PSoC4/LED_8.h"
 764              		.file 13 "Generated_Source\\PSoC4/LED_9.h"
 765              		.file 14 "Generated_Source\\PSoC4/PWM_W.h"
 766              		.file 15 "Generated_Source\\PSoC4/ISR_W.h"
 767              		.file 16 "Generated_Source\\PSoC4/PWM_R.h"
 768              		.file 17 "Generated_Source\\PSoC4/ISR_R.h"
 769              		.file 18 "Generated_Source\\PSoC4/ISR_W0.h"
 770              		.file 19 "Generated_Source\\PSoC4/ISR_R0.h"
 771              		.file 20 "Generated_Source\\PSoC4/UART_SPI_UART.h"
 772              		.file 21 "Generated_Source\\PSoC4/UART.h"
 773              		.file 22 "Generated_Source\\PSoC4/CyLib.h"
 774              		.file 23 "c:\\program files (x86)\\cypress\\psoc creator\\4.4\\psoc creator\\import\\gnu\\arm\\5.4