ARM GAS  C:\Users\GIANLU~1\AppData\Local\Temp\ccMj8ocL.s 			page 1


   1              		.syntax unified
   2              		.cpu cortex-m0
   3              		.fpu softvfp
   4              		.eabi_attribute 20, 1
   5              		.eabi_attribute 21, 1
   6              		.eabi_attribute 23, 3
   7              		.eabi_attribute 24, 1
   8              		.eabi_attribute 25, 1
   9              		.eabi_attribute 26, 1
  10              		.eabi_attribute 30, 1
  11              		.eabi_attribute 34, 0
  12              		.eabi_attribute 18, 4
  13              		.thumb
  14              		.syntax unified
  15              		.file	"Serial_UART.c"
  16              		.text
  17              	.Ltext0:
  18              		.cfi_sections	.debug_frame
  19              		.section	.text.Serial_UartInit,"ax",%progbits
  20              		.align	2
  21              		.global	Serial_UartInit
  22              		.code	16
  23              		.thumb_func
  24              		.type	Serial_UartInit, %function
  25              	Serial_UartInit:
  26              	.LFB0:
  27              		.file 1 "Generated_Source\\PSoC4\\Serial_UART.c"
   1:Generated_Source\PSoC4/Serial_UART.c **** /***************************************************************************//**
   2:Generated_Source\PSoC4/Serial_UART.c **** * \file Serial_UART.c
   3:Generated_Source\PSoC4/Serial_UART.c **** * \version 4.0
   4:Generated_Source\PSoC4/Serial_UART.c **** *
   5:Generated_Source\PSoC4/Serial_UART.c **** * \brief
   6:Generated_Source\PSoC4/Serial_UART.c **** *  This file provides the source code to the API for the SCB Component in
   7:Generated_Source\PSoC4/Serial_UART.c **** *  UART mode.
   8:Generated_Source\PSoC4/Serial_UART.c **** *
   9:Generated_Source\PSoC4/Serial_UART.c **** * Note:
  10:Generated_Source\PSoC4/Serial_UART.c **** *
  11:Generated_Source\PSoC4/Serial_UART.c **** *******************************************************************************
  12:Generated_Source\PSoC4/Serial_UART.c **** * \copyright
  13:Generated_Source\PSoC4/Serial_UART.c **** * Copyright 2013-2017, Cypress Semiconductor Corporation.  All rights reserved.
  14:Generated_Source\PSoC4/Serial_UART.c **** * You may use this file only in accordance with the license, terms, conditions,
  15:Generated_Source\PSoC4/Serial_UART.c **** * disclaimers, and limitations in the end user license agreement accompanying
  16:Generated_Source\PSoC4/Serial_UART.c **** * the software package with which this file was provided.
  17:Generated_Source\PSoC4/Serial_UART.c **** *******************************************************************************/
  18:Generated_Source\PSoC4/Serial_UART.c **** 
  19:Generated_Source\PSoC4/Serial_UART.c **** #include "Serial_PVT.h"
  20:Generated_Source\PSoC4/Serial_UART.c **** #include "Serial_SPI_UART_PVT.h"
  21:Generated_Source\PSoC4/Serial_UART.c **** #include "cyapicallbacks.h"
  22:Generated_Source\PSoC4/Serial_UART.c **** 
  23:Generated_Source\PSoC4/Serial_UART.c **** #if (Serial_UART_WAKE_ENABLE_CONST && Serial_UART_RX_WAKEUP_IRQ)
  24:Generated_Source\PSoC4/Serial_UART.c ****     /**
  25:Generated_Source\PSoC4/Serial_UART.c ****     * \addtogroup group_globals
  26:Generated_Source\PSoC4/Serial_UART.c ****     * \{
  27:Generated_Source\PSoC4/Serial_UART.c ****     */
  28:Generated_Source\PSoC4/Serial_UART.c ****     /** This global variable determines whether to enable Skip Start
  29:Generated_Source\PSoC4/Serial_UART.c ****     * functionality when Serial_Sleep() function is called:
  30:Generated_Source\PSoC4/Serial_UART.c ****     * 0 – disable, other values – enable. Default value is 1.
ARM GAS  C:\Users\GIANLU~1\AppData\Local\Temp\ccMj8ocL.s 			page 2


  31:Generated_Source\PSoC4/Serial_UART.c ****     * It is only available when Enable wakeup from Deep Sleep Mode is enabled.
  32:Generated_Source\PSoC4/Serial_UART.c ****     */
  33:Generated_Source\PSoC4/Serial_UART.c ****     uint8 Serial_skipStart = 1u;
  34:Generated_Source\PSoC4/Serial_UART.c ****     /** \} globals */
  35:Generated_Source\PSoC4/Serial_UART.c **** #endif /* (Serial_UART_WAKE_ENABLE_CONST && Serial_UART_RX_WAKEUP_IRQ) */
  36:Generated_Source\PSoC4/Serial_UART.c **** 
  37:Generated_Source\PSoC4/Serial_UART.c **** #if(Serial_SCB_MODE_UNCONFIG_CONST_CFG)
  38:Generated_Source\PSoC4/Serial_UART.c **** 
  39:Generated_Source\PSoC4/Serial_UART.c ****     /***************************************
  40:Generated_Source\PSoC4/Serial_UART.c ****     *  Configuration Structure Initialization
  41:Generated_Source\PSoC4/Serial_UART.c ****     ***************************************/
  42:Generated_Source\PSoC4/Serial_UART.c **** 
  43:Generated_Source\PSoC4/Serial_UART.c ****     const Serial_UART_INIT_STRUCT Serial_configUart =
  44:Generated_Source\PSoC4/Serial_UART.c ****     {
  45:Generated_Source\PSoC4/Serial_UART.c ****         Serial_UART_SUB_MODE,
  46:Generated_Source\PSoC4/Serial_UART.c ****         Serial_UART_DIRECTION,
  47:Generated_Source\PSoC4/Serial_UART.c ****         Serial_UART_DATA_BITS_NUM,
  48:Generated_Source\PSoC4/Serial_UART.c ****         Serial_UART_PARITY_TYPE,
  49:Generated_Source\PSoC4/Serial_UART.c ****         Serial_UART_STOP_BITS_NUM,
  50:Generated_Source\PSoC4/Serial_UART.c ****         Serial_UART_OVS_FACTOR,
  51:Generated_Source\PSoC4/Serial_UART.c ****         Serial_UART_IRDA_LOW_POWER,
  52:Generated_Source\PSoC4/Serial_UART.c ****         Serial_UART_MEDIAN_FILTER_ENABLE,
  53:Generated_Source\PSoC4/Serial_UART.c ****         Serial_UART_RETRY_ON_NACK,
  54:Generated_Source\PSoC4/Serial_UART.c ****         Serial_UART_IRDA_POLARITY,
  55:Generated_Source\PSoC4/Serial_UART.c ****         Serial_UART_DROP_ON_PARITY_ERR,
  56:Generated_Source\PSoC4/Serial_UART.c ****         Serial_UART_DROP_ON_FRAME_ERR,
  57:Generated_Source\PSoC4/Serial_UART.c ****         Serial_UART_WAKE_ENABLE,
  58:Generated_Source\PSoC4/Serial_UART.c ****         0u,
  59:Generated_Source\PSoC4/Serial_UART.c ****         NULL,
  60:Generated_Source\PSoC4/Serial_UART.c ****         0u,
  61:Generated_Source\PSoC4/Serial_UART.c ****         NULL,
  62:Generated_Source\PSoC4/Serial_UART.c ****         Serial_UART_MP_MODE_ENABLE,
  63:Generated_Source\PSoC4/Serial_UART.c ****         Serial_UART_MP_ACCEPT_ADDRESS,
  64:Generated_Source\PSoC4/Serial_UART.c ****         Serial_UART_MP_RX_ADDRESS,
  65:Generated_Source\PSoC4/Serial_UART.c ****         Serial_UART_MP_RX_ADDRESS_MASK,
  66:Generated_Source\PSoC4/Serial_UART.c ****         (uint32) Serial_SCB_IRQ_INTERNAL,
  67:Generated_Source\PSoC4/Serial_UART.c ****         Serial_UART_INTR_RX_MASK,
  68:Generated_Source\PSoC4/Serial_UART.c ****         Serial_UART_RX_TRIGGER_LEVEL,
  69:Generated_Source\PSoC4/Serial_UART.c ****         Serial_UART_INTR_TX_MASK,
  70:Generated_Source\PSoC4/Serial_UART.c ****         Serial_UART_TX_TRIGGER_LEVEL,
  71:Generated_Source\PSoC4/Serial_UART.c ****         (uint8) Serial_UART_BYTE_MODE_ENABLE,
  72:Generated_Source\PSoC4/Serial_UART.c ****         (uint8) Serial_UART_CTS_ENABLE,
  73:Generated_Source\PSoC4/Serial_UART.c ****         (uint8) Serial_UART_CTS_POLARITY,
  74:Generated_Source\PSoC4/Serial_UART.c ****         (uint8) Serial_UART_RTS_POLARITY,
  75:Generated_Source\PSoC4/Serial_UART.c ****         (uint8) Serial_UART_RTS_FIFO_LEVEL,
  76:Generated_Source\PSoC4/Serial_UART.c ****         (uint8) Serial_UART_RX_BREAK_WIDTH
  77:Generated_Source\PSoC4/Serial_UART.c ****     };
  78:Generated_Source\PSoC4/Serial_UART.c **** 
  79:Generated_Source\PSoC4/Serial_UART.c **** 
  80:Generated_Source\PSoC4/Serial_UART.c ****     /*******************************************************************************
  81:Generated_Source\PSoC4/Serial_UART.c ****     * Function Name: Serial_UartInit
  82:Generated_Source\PSoC4/Serial_UART.c ****     ****************************************************************************//**
  83:Generated_Source\PSoC4/Serial_UART.c ****     *
  84:Generated_Source\PSoC4/Serial_UART.c ****     *  Configures the Serial for UART operation.
  85:Generated_Source\PSoC4/Serial_UART.c ****     *
  86:Generated_Source\PSoC4/Serial_UART.c ****     *  This function is intended specifically to be used when the Serial
  87:Generated_Source\PSoC4/Serial_UART.c ****     *  configuration is set to “Unconfigured Serial” in the customizer.
ARM GAS  C:\Users\GIANLU~1\AppData\Local\Temp\ccMj8ocL.s 			page 3


  88:Generated_Source\PSoC4/Serial_UART.c ****     *  After initializing the Serial in UART mode using this function,
  89:Generated_Source\PSoC4/Serial_UART.c ****     *  the component can be enabled using the Serial_Start() or
  90:Generated_Source\PSoC4/Serial_UART.c ****     * Serial_Enable() function.
  91:Generated_Source\PSoC4/Serial_UART.c ****     *  This function uses a pointer to a structure that provides the configuration
  92:Generated_Source\PSoC4/Serial_UART.c ****     *  settings. This structure contains the same information that would otherwise
  93:Generated_Source\PSoC4/Serial_UART.c ****     *  be provided by the customizer settings.
  94:Generated_Source\PSoC4/Serial_UART.c ****     *
  95:Generated_Source\PSoC4/Serial_UART.c ****     *  \param config: pointer to a structure that contains the following list of
  96:Generated_Source\PSoC4/Serial_UART.c ****     *   fields. These fields match the selections available in the customizer.
  97:Generated_Source\PSoC4/Serial_UART.c ****     *   Refer to the customizer for further description of the settings.
  98:Generated_Source\PSoC4/Serial_UART.c ****     *
  99:Generated_Source\PSoC4/Serial_UART.c ****     *******************************************************************************/
 100:Generated_Source\PSoC4/Serial_UART.c ****     void Serial_UartInit(const Serial_UART_INIT_STRUCT *config)
 101:Generated_Source\PSoC4/Serial_UART.c ****     {
 102:Generated_Source\PSoC4/Serial_UART.c ****         uint32 pinsConfig;
 103:Generated_Source\PSoC4/Serial_UART.c **** 
 104:Generated_Source\PSoC4/Serial_UART.c ****         if (NULL == config)
 105:Generated_Source\PSoC4/Serial_UART.c ****         {
 106:Generated_Source\PSoC4/Serial_UART.c ****             CYASSERT(0u != 0u); /* Halt execution due to bad function parameter */
 107:Generated_Source\PSoC4/Serial_UART.c ****         }
 108:Generated_Source\PSoC4/Serial_UART.c ****         else
 109:Generated_Source\PSoC4/Serial_UART.c ****         {
 110:Generated_Source\PSoC4/Serial_UART.c ****             /* Get direction to configure UART pins: TX, RX or TX+RX */
 111:Generated_Source\PSoC4/Serial_UART.c ****             pinsConfig  = config->direction;
 112:Generated_Source\PSoC4/Serial_UART.c **** 
 113:Generated_Source\PSoC4/Serial_UART.c ****         #if !(Serial_CY_SCBIP_V0 || Serial_CY_SCBIP_V1)
 114:Generated_Source\PSoC4/Serial_UART.c ****             /* Add RTS and CTS pins to configure */
 115:Generated_Source\PSoC4/Serial_UART.c ****             pinsConfig |= (0u != config->rtsRxFifoLevel) ? (Serial_UART_RTS_PIN_ENABLE) : (0u);
 116:Generated_Source\PSoC4/Serial_UART.c ****             pinsConfig |= (0u != config->enableCts)      ? (Serial_UART_CTS_PIN_ENABLE) : (0u);
 117:Generated_Source\PSoC4/Serial_UART.c ****         #endif /* !(Serial_CY_SCBIP_V0 || Serial_CY_SCBIP_V1) */
 118:Generated_Source\PSoC4/Serial_UART.c **** 
 119:Generated_Source\PSoC4/Serial_UART.c ****             /* Configure pins */
 120:Generated_Source\PSoC4/Serial_UART.c ****             Serial_SetPins(Serial_SCB_MODE_UART, config->mode, pinsConfig);
 121:Generated_Source\PSoC4/Serial_UART.c **** 
 122:Generated_Source\PSoC4/Serial_UART.c ****             /* Store internal configuration */
 123:Generated_Source\PSoC4/Serial_UART.c ****             Serial_scbMode       = (uint8) Serial_SCB_MODE_UART;
 124:Generated_Source\PSoC4/Serial_UART.c ****             Serial_scbEnableWake = (uint8) config->enableWake;
 125:Generated_Source\PSoC4/Serial_UART.c ****             Serial_scbEnableIntr = (uint8) config->enableInterrupt;
 126:Generated_Source\PSoC4/Serial_UART.c **** 
 127:Generated_Source\PSoC4/Serial_UART.c ****             /* Set RX direction internal variables */
 128:Generated_Source\PSoC4/Serial_UART.c ****             Serial_rxBuffer      =         config->rxBuffer;
 129:Generated_Source\PSoC4/Serial_UART.c ****             Serial_rxDataBits    = (uint8) config->dataBits;
 130:Generated_Source\PSoC4/Serial_UART.c ****             Serial_rxBufferSize  =         config->rxBufferSize;
 131:Generated_Source\PSoC4/Serial_UART.c **** 
 132:Generated_Source\PSoC4/Serial_UART.c ****             /* Set TX direction internal variables */
 133:Generated_Source\PSoC4/Serial_UART.c ****             Serial_txBuffer      =         config->txBuffer;
 134:Generated_Source\PSoC4/Serial_UART.c ****             Serial_txDataBits    = (uint8) config->dataBits;
 135:Generated_Source\PSoC4/Serial_UART.c ****             Serial_txBufferSize  =         config->txBufferSize;
 136:Generated_Source\PSoC4/Serial_UART.c **** 
 137:Generated_Source\PSoC4/Serial_UART.c ****             /* Configure UART interface */
 138:Generated_Source\PSoC4/Serial_UART.c ****             if(Serial_UART_MODE_IRDA == config->mode)
 139:Generated_Source\PSoC4/Serial_UART.c ****             {
 140:Generated_Source\PSoC4/Serial_UART.c ****                 /* OVS settings: IrDA */
 141:Generated_Source\PSoC4/Serial_UART.c ****                 Serial_CTRL_REG  = ((0u != config->enableIrdaLowPower) ?
 142:Generated_Source\PSoC4/Serial_UART.c ****                                                 (Serial_UART_GET_CTRL_OVS_IRDA_LP(config->oversampl
 143:Generated_Source\PSoC4/Serial_UART.c ****                                                 (Serial_CTRL_OVS_IRDA_OVS16));
 144:Generated_Source\PSoC4/Serial_UART.c ****             }
ARM GAS  C:\Users\GIANLU~1\AppData\Local\Temp\ccMj8ocL.s 			page 4


 145:Generated_Source\PSoC4/Serial_UART.c ****             else
 146:Generated_Source\PSoC4/Serial_UART.c ****             {
 147:Generated_Source\PSoC4/Serial_UART.c ****                 /* OVS settings: UART and SmartCard */
 148:Generated_Source\PSoC4/Serial_UART.c ****                 Serial_CTRL_REG  = Serial_GET_CTRL_OVS(config->oversample);
 149:Generated_Source\PSoC4/Serial_UART.c ****             }
 150:Generated_Source\PSoC4/Serial_UART.c **** 
 151:Generated_Source\PSoC4/Serial_UART.c ****             Serial_CTRL_REG     |= Serial_GET_CTRL_BYTE_MODE  (config->enableByteMode)      |
 152:Generated_Source\PSoC4/Serial_UART.c ****                                              Serial_GET_CTRL_ADDR_ACCEPT(config->multiprocAcceptAdd
 153:Generated_Source\PSoC4/Serial_UART.c ****                                              Serial_CTRL_UART;
 154:Generated_Source\PSoC4/Serial_UART.c **** 
 155:Generated_Source\PSoC4/Serial_UART.c ****             /* Configure sub-mode: UART, SmartCard or IrDA */
 156:Generated_Source\PSoC4/Serial_UART.c ****             Serial_UART_CTRL_REG = Serial_GET_UART_CTRL_MODE(config->mode);
 157:Generated_Source\PSoC4/Serial_UART.c **** 
 158:Generated_Source\PSoC4/Serial_UART.c ****             /* Configure RX direction */
 159:Generated_Source\PSoC4/Serial_UART.c ****             Serial_UART_RX_CTRL_REG = Serial_GET_UART_RX_CTRL_MODE(config->stopBits)              |
 160:Generated_Source\PSoC4/Serial_UART.c ****                                         Serial_GET_UART_RX_CTRL_POLARITY(config->enableInvertedRx) 
 161:Generated_Source\PSoC4/Serial_UART.c ****                                         Serial_GET_UART_RX_CTRL_MP_MODE(config->enableMultiproc)   
 162:Generated_Source\PSoC4/Serial_UART.c ****                                         Serial_GET_UART_RX_CTRL_DROP_ON_PARITY_ERR(config->dropOnPa
 163:Generated_Source\PSoC4/Serial_UART.c ****                                         Serial_GET_UART_RX_CTRL_DROP_ON_FRAME_ERR(config->dropOnFra
 164:Generated_Source\PSoC4/Serial_UART.c ****                                         Serial_GET_UART_RX_CTRL_BREAK_WIDTH(config->breakWidth);
 165:Generated_Source\PSoC4/Serial_UART.c **** 
 166:Generated_Source\PSoC4/Serial_UART.c ****             if(Serial_UART_PARITY_NONE != config->parity)
 167:Generated_Source\PSoC4/Serial_UART.c ****             {
 168:Generated_Source\PSoC4/Serial_UART.c ****                Serial_UART_RX_CTRL_REG |= Serial_GET_UART_RX_CTRL_PARITY(config->parity) |
 169:Generated_Source\PSoC4/Serial_UART.c ****                                                     Serial_UART_RX_CTRL_PARITY_ENABLED;
 170:Generated_Source\PSoC4/Serial_UART.c ****             }
 171:Generated_Source\PSoC4/Serial_UART.c **** 
 172:Generated_Source\PSoC4/Serial_UART.c ****             Serial_RX_CTRL_REG      = Serial_GET_RX_CTRL_DATA_WIDTH(config->dataBits)       |
 173:Generated_Source\PSoC4/Serial_UART.c ****                                                 Serial_GET_RX_CTRL_MEDIAN(config->enableMedianFilte
 174:Generated_Source\PSoC4/Serial_UART.c ****                                                 Serial_GET_UART_RX_CTRL_ENABLED(config->direction);
 175:Generated_Source\PSoC4/Serial_UART.c **** 
 176:Generated_Source\PSoC4/Serial_UART.c ****             Serial_RX_FIFO_CTRL_REG = Serial_GET_RX_FIFO_CTRL_TRIGGER_LEVEL(config->rxTriggerLevel)
 177:Generated_Source\PSoC4/Serial_UART.c **** 
 178:Generated_Source\PSoC4/Serial_UART.c ****             /* Configure MP address */
 179:Generated_Source\PSoC4/Serial_UART.c ****             Serial_RX_MATCH_REG     = Serial_GET_RX_MATCH_ADDR(config->multiprocAddr) |
 180:Generated_Source\PSoC4/Serial_UART.c ****                                                 Serial_GET_RX_MATCH_MASK(config->multiprocAddrMask)
 181:Generated_Source\PSoC4/Serial_UART.c **** 
 182:Generated_Source\PSoC4/Serial_UART.c ****             /* Configure RX direction */
 183:Generated_Source\PSoC4/Serial_UART.c ****             Serial_UART_TX_CTRL_REG = Serial_GET_UART_TX_CTRL_MODE(config->stopBits) |
 184:Generated_Source\PSoC4/Serial_UART.c ****                                                 Serial_GET_UART_TX_CTRL_RETRY_NACK(config->enableRe
 185:Generated_Source\PSoC4/Serial_UART.c **** 
 186:Generated_Source\PSoC4/Serial_UART.c ****             if(Serial_UART_PARITY_NONE != config->parity)
 187:Generated_Source\PSoC4/Serial_UART.c ****             {
 188:Generated_Source\PSoC4/Serial_UART.c ****                Serial_UART_TX_CTRL_REG |= Serial_GET_UART_TX_CTRL_PARITY(config->parity) |
 189:Generated_Source\PSoC4/Serial_UART.c ****                                                     Serial_UART_TX_CTRL_PARITY_ENABLED;
 190:Generated_Source\PSoC4/Serial_UART.c ****             }
 191:Generated_Source\PSoC4/Serial_UART.c **** 
 192:Generated_Source\PSoC4/Serial_UART.c ****             Serial_TX_CTRL_REG      = Serial_GET_TX_CTRL_DATA_WIDTH(config->dataBits)    |
 193:Generated_Source\PSoC4/Serial_UART.c ****                                                 Serial_GET_UART_TX_CTRL_ENABLED(config->direction);
 194:Generated_Source\PSoC4/Serial_UART.c **** 
 195:Generated_Source\PSoC4/Serial_UART.c ****             Serial_TX_FIFO_CTRL_REG = Serial_GET_TX_FIFO_CTRL_TRIGGER_LEVEL(config->txTriggerLevel)
 196:Generated_Source\PSoC4/Serial_UART.c **** 
 197:Generated_Source\PSoC4/Serial_UART.c ****         #if !(Serial_CY_SCBIP_V0 || Serial_CY_SCBIP_V1)
 198:Generated_Source\PSoC4/Serial_UART.c ****             Serial_UART_FLOW_CTRL_REG = Serial_GET_UART_FLOW_CTRL_CTS_ENABLE(config->enableCts) | \
 199:Generated_Source\PSoC4/Serial_UART.c ****                                             Serial_GET_UART_FLOW_CTRL_CTS_POLARITY (config->ctsPola
 200:Generated_Source\PSoC4/Serial_UART.c ****                                             Serial_GET_UART_FLOW_CTRL_RTS_POLARITY (config->rtsPola
 201:Generated_Source\PSoC4/Serial_UART.c ****                                             Serial_GET_UART_FLOW_CTRL_TRIGGER_LEVEL(config->rtsRxFi
ARM GAS  C:\Users\GIANLU~1\AppData\Local\Temp\ccMj8ocL.s 			page 5


 202:Generated_Source\PSoC4/Serial_UART.c ****         #endif /* !(Serial_CY_SCBIP_V0 || Serial_CY_SCBIP_V1) */
 203:Generated_Source\PSoC4/Serial_UART.c **** 
 204:Generated_Source\PSoC4/Serial_UART.c ****             /* Configure interrupt with UART handler but do not enable it */
 205:Generated_Source\PSoC4/Serial_UART.c ****             CyIntDisable    (Serial_ISR_NUMBER);
 206:Generated_Source\PSoC4/Serial_UART.c ****             CyIntSetPriority(Serial_ISR_NUMBER, Serial_ISR_PRIORITY);
 207:Generated_Source\PSoC4/Serial_UART.c ****             (void) CyIntSetVector(Serial_ISR_NUMBER, &Serial_SPI_UART_ISR);
 208:Generated_Source\PSoC4/Serial_UART.c **** 
 209:Generated_Source\PSoC4/Serial_UART.c ****             /* Configure WAKE interrupt */
 210:Generated_Source\PSoC4/Serial_UART.c ****         #if(Serial_UART_RX_WAKEUP_IRQ)
 211:Generated_Source\PSoC4/Serial_UART.c ****             CyIntDisable    (Serial_RX_WAKE_ISR_NUMBER);
 212:Generated_Source\PSoC4/Serial_UART.c ****             CyIntSetPriority(Serial_RX_WAKE_ISR_NUMBER, Serial_RX_WAKE_ISR_PRIORITY);
 213:Generated_Source\PSoC4/Serial_UART.c ****             (void) CyIntSetVector(Serial_RX_WAKE_ISR_NUMBER, &Serial_UART_WAKEUP_ISR);
 214:Generated_Source\PSoC4/Serial_UART.c ****         #endif /* (Serial_UART_RX_WAKEUP_IRQ) */
 215:Generated_Source\PSoC4/Serial_UART.c **** 
 216:Generated_Source\PSoC4/Serial_UART.c ****             /* Configure interrupt sources */
 217:Generated_Source\PSoC4/Serial_UART.c ****             Serial_INTR_I2C_EC_MASK_REG = Serial_NO_INTR_SOURCES;
 218:Generated_Source\PSoC4/Serial_UART.c ****             Serial_INTR_SPI_EC_MASK_REG = Serial_NO_INTR_SOURCES;
 219:Generated_Source\PSoC4/Serial_UART.c ****             Serial_INTR_SLAVE_MASK_REG  = Serial_NO_INTR_SOURCES;
 220:Generated_Source\PSoC4/Serial_UART.c ****             Serial_INTR_MASTER_MASK_REG = Serial_NO_INTR_SOURCES;
 221:Generated_Source\PSoC4/Serial_UART.c ****             Serial_INTR_RX_MASK_REG     = config->rxInterruptMask;
 222:Generated_Source\PSoC4/Serial_UART.c ****             Serial_INTR_TX_MASK_REG     = config->txInterruptMask;
 223:Generated_Source\PSoC4/Serial_UART.c **** 
 224:Generated_Source\PSoC4/Serial_UART.c ****             /* Configure TX interrupt sources to restore. */
 225:Generated_Source\PSoC4/Serial_UART.c ****             Serial_IntrTxMask = LO16(Serial_INTR_TX_MASK_REG);
 226:Generated_Source\PSoC4/Serial_UART.c **** 
 227:Generated_Source\PSoC4/Serial_UART.c ****             /* Clear RX buffer indexes */
 228:Generated_Source\PSoC4/Serial_UART.c ****             Serial_rxBufferHead     = 0u;
 229:Generated_Source\PSoC4/Serial_UART.c ****             Serial_rxBufferTail     = 0u;
 230:Generated_Source\PSoC4/Serial_UART.c ****             Serial_rxBufferOverflow = 0u;
 231:Generated_Source\PSoC4/Serial_UART.c **** 
 232:Generated_Source\PSoC4/Serial_UART.c ****             /* Clear TX buffer indexes */
 233:Generated_Source\PSoC4/Serial_UART.c ****             Serial_txBufferHead = 0u;
 234:Generated_Source\PSoC4/Serial_UART.c ****             Serial_txBufferTail = 0u;
 235:Generated_Source\PSoC4/Serial_UART.c ****         }
 236:Generated_Source\PSoC4/Serial_UART.c ****     }
 237:Generated_Source\PSoC4/Serial_UART.c **** 
 238:Generated_Source\PSoC4/Serial_UART.c **** #else
 239:Generated_Source\PSoC4/Serial_UART.c **** 
 240:Generated_Source\PSoC4/Serial_UART.c ****     /*******************************************************************************
 241:Generated_Source\PSoC4/Serial_UART.c ****     * Function Name: Serial_UartInit
 242:Generated_Source\PSoC4/Serial_UART.c ****     ****************************************************************************//**
 243:Generated_Source\PSoC4/Serial_UART.c ****     *
 244:Generated_Source\PSoC4/Serial_UART.c ****     *  Configures the SCB for the UART operation.
 245:Generated_Source\PSoC4/Serial_UART.c ****     *
 246:Generated_Source\PSoC4/Serial_UART.c ****     *******************************************************************************/
 247:Generated_Source\PSoC4/Serial_UART.c ****     void Serial_UartInit(void)
 248:Generated_Source\PSoC4/Serial_UART.c ****     {
  28              		.loc 1 248 0
  29              		.cfi_startproc
  30              		@ args = 0, pretend = 0, frame = 0
  31              		@ frame_needed = 0, uses_anonymous_args = 0
  32              		@ link register save eliminated.
 249:Generated_Source\PSoC4/Serial_UART.c ****         /* Configure UART interface */
 250:Generated_Source\PSoC4/Serial_UART.c ****         Serial_CTRL_REG = Serial_UART_DEFAULT_CTRL;
  33              		.loc 1 250 0
  34 0000 144A     		ldr	r2, .L2
  35 0002 154B     		ldr	r3, .L2+4
ARM GAS  C:\Users\GIANLU~1\AppData\Local\Temp\ccMj8ocL.s 			page 6


  36 0004 1A60     		str	r2, [r3]
 251:Generated_Source\PSoC4/Serial_UART.c **** 
 252:Generated_Source\PSoC4/Serial_UART.c ****         /* Configure sub-mode: UART, SmartCard or IrDA */
 253:Generated_Source\PSoC4/Serial_UART.c ****         Serial_UART_CTRL_REG = Serial_UART_DEFAULT_UART_CTRL;
  37              		.loc 1 253 0
  38 0006 0023     		movs	r3, #0
  39 0008 144A     		ldr	r2, .L2+8
  40 000a 1360     		str	r3, [r2]
 254:Generated_Source\PSoC4/Serial_UART.c **** 
 255:Generated_Source\PSoC4/Serial_UART.c ****         /* Configure RX direction */
 256:Generated_Source\PSoC4/Serial_UART.c ****         Serial_UART_RX_CTRL_REG = Serial_UART_DEFAULT_UART_RX_CTRL;
  41              		.loc 1 256 0
  42 000c 1449     		ldr	r1, .L2+12
  43 000e 154A     		ldr	r2, .L2+16
  44 0010 1160     		str	r1, [r2]
 257:Generated_Source\PSoC4/Serial_UART.c ****         Serial_RX_CTRL_REG      = Serial_UART_DEFAULT_RX_CTRL;
  45              		.loc 1 257 0
  46 0012 1549     		ldr	r1, .L2+20
  47 0014 154A     		ldr	r2, .L2+24
  48 0016 1160     		str	r1, [r2]
 258:Generated_Source\PSoC4/Serial_UART.c ****         Serial_RX_FIFO_CTRL_REG = Serial_UART_DEFAULT_RX_FIFO_CTRL;
  49              		.loc 1 258 0
  50 0018 0721     		movs	r1, #7
  51 001a 154A     		ldr	r2, .L2+28
  52 001c 1160     		str	r1, [r2]
 259:Generated_Source\PSoC4/Serial_UART.c ****         Serial_RX_MATCH_REG     = Serial_UART_DEFAULT_RX_MATCH_REG;
  53              		.loc 1 259 0
  54 001e 154A     		ldr	r2, .L2+32
  55 0020 1360     		str	r3, [r2]
 260:Generated_Source\PSoC4/Serial_UART.c **** 
 261:Generated_Source\PSoC4/Serial_UART.c ****         /* Configure TX direction */
 262:Generated_Source\PSoC4/Serial_UART.c ****         Serial_UART_TX_CTRL_REG = Serial_UART_DEFAULT_UART_TX_CTRL;
  56              		.loc 1 262 0
  57 0022 0639     		subs	r1, r1, #6
  58 0024 144A     		ldr	r2, .L2+36
  59 0026 1160     		str	r1, [r2]
 263:Generated_Source\PSoC4/Serial_UART.c ****         Serial_TX_CTRL_REG      = Serial_UART_DEFAULT_TX_CTRL;
  60              		.loc 1 263 0
  61 0028 1449     		ldr	r1, .L2+40
  62 002a 154A     		ldr	r2, .L2+44
  63 002c 1160     		str	r1, [r2]
 264:Generated_Source\PSoC4/Serial_UART.c ****         Serial_TX_FIFO_CTRL_REG = Serial_UART_DEFAULT_TX_FIFO_CTRL;
  64              		.loc 1 264 0
  65 002e 154A     		ldr	r2, .L2+48
  66 0030 1360     		str	r3, [r2]
 265:Generated_Source\PSoC4/Serial_UART.c **** 
 266:Generated_Source\PSoC4/Serial_UART.c ****     #if !(Serial_CY_SCBIP_V0 || Serial_CY_SCBIP_V1)
 267:Generated_Source\PSoC4/Serial_UART.c ****         Serial_UART_FLOW_CTRL_REG = Serial_UART_DEFAULT_FLOW_CTRL;
 268:Generated_Source\PSoC4/Serial_UART.c ****     #endif /* !(Serial_CY_SCBIP_V0 || Serial_CY_SCBIP_V1) */
 269:Generated_Source\PSoC4/Serial_UART.c **** 
 270:Generated_Source\PSoC4/Serial_UART.c ****         /* Configure interrupt with UART handler but do not enable it */
 271:Generated_Source\PSoC4/Serial_UART.c ****     #if(Serial_SCB_IRQ_INTERNAL)
 272:Generated_Source\PSoC4/Serial_UART.c ****         CyIntDisable    (Serial_ISR_NUMBER);
 273:Generated_Source\PSoC4/Serial_UART.c ****         CyIntSetPriority(Serial_ISR_NUMBER, Serial_ISR_PRIORITY);
 274:Generated_Source\PSoC4/Serial_UART.c ****         (void) CyIntSetVector(Serial_ISR_NUMBER, &Serial_SPI_UART_ISR);
 275:Generated_Source\PSoC4/Serial_UART.c ****     #endif /* (Serial_SCB_IRQ_INTERNAL) */
 276:Generated_Source\PSoC4/Serial_UART.c **** 
ARM GAS  C:\Users\GIANLU~1\AppData\Local\Temp\ccMj8ocL.s 			page 7


 277:Generated_Source\PSoC4/Serial_UART.c ****         /* Configure WAKE interrupt */
 278:Generated_Source\PSoC4/Serial_UART.c ****     #if(Serial_UART_RX_WAKEUP_IRQ)
 279:Generated_Source\PSoC4/Serial_UART.c ****         CyIntDisable    (Serial_RX_WAKE_ISR_NUMBER);
 280:Generated_Source\PSoC4/Serial_UART.c ****         CyIntSetPriority(Serial_RX_WAKE_ISR_NUMBER, Serial_RX_WAKE_ISR_PRIORITY);
 281:Generated_Source\PSoC4/Serial_UART.c ****         (void) CyIntSetVector(Serial_RX_WAKE_ISR_NUMBER, &Serial_UART_WAKEUP_ISR);
 282:Generated_Source\PSoC4/Serial_UART.c ****     #endif /* (Serial_UART_RX_WAKEUP_IRQ) */
 283:Generated_Source\PSoC4/Serial_UART.c **** 
 284:Generated_Source\PSoC4/Serial_UART.c ****         /* Configure interrupt sources */
 285:Generated_Source\PSoC4/Serial_UART.c ****         Serial_INTR_I2C_EC_MASK_REG = Serial_UART_DEFAULT_INTR_I2C_EC_MASK;
  67              		.loc 1 285 0
  68 0032 154A     		ldr	r2, .L2+52
  69 0034 1360     		str	r3, [r2]
 286:Generated_Source\PSoC4/Serial_UART.c ****         Serial_INTR_SPI_EC_MASK_REG = Serial_UART_DEFAULT_INTR_SPI_EC_MASK;
  70              		.loc 1 286 0
  71 0036 154A     		ldr	r2, .L2+56
  72 0038 1360     		str	r3, [r2]
 287:Generated_Source\PSoC4/Serial_UART.c ****         Serial_INTR_SLAVE_MASK_REG  = Serial_UART_DEFAULT_INTR_SLAVE_MASK;
  73              		.loc 1 287 0
  74 003a 154A     		ldr	r2, .L2+60
  75 003c 1360     		str	r3, [r2]
 288:Generated_Source\PSoC4/Serial_UART.c ****         Serial_INTR_MASTER_MASK_REG = Serial_UART_DEFAULT_INTR_MASTER_MASK;
  76              		.loc 1 288 0
  77 003e 154A     		ldr	r2, .L2+64
  78 0040 1360     		str	r3, [r2]
 289:Generated_Source\PSoC4/Serial_UART.c ****         Serial_INTR_RX_MASK_REG     = Serial_UART_DEFAULT_INTR_RX_MASK;
  79              		.loc 1 289 0
  80 0042 154A     		ldr	r2, .L2+68
  81 0044 1360     		str	r3, [r2]
 290:Generated_Source\PSoC4/Serial_UART.c ****         Serial_INTR_TX_MASK_REG     = Serial_UART_DEFAULT_INTR_TX_MASK;
  82              		.loc 1 290 0
  83 0046 154A     		ldr	r2, .L2+72
  84 0048 1360     		str	r3, [r2]
 291:Generated_Source\PSoC4/Serial_UART.c **** 
 292:Generated_Source\PSoC4/Serial_UART.c ****         /* Configure TX interrupt sources to restore. */
 293:Generated_Source\PSoC4/Serial_UART.c ****         Serial_IntrTxMask = LO16(Serial_INTR_TX_MASK_REG);
  85              		.loc 1 293 0
  86 004a 1268     		ldr	r2, [r2]
  87 004c 144B     		ldr	r3, .L2+76
  88 004e 1A80     		strh	r2, [r3]
 294:Generated_Source\PSoC4/Serial_UART.c **** 
 295:Generated_Source\PSoC4/Serial_UART.c ****     #if(Serial_INTERNAL_RX_SW_BUFFER_CONST)
 296:Generated_Source\PSoC4/Serial_UART.c ****         Serial_rxBufferHead     = 0u;
 297:Generated_Source\PSoC4/Serial_UART.c ****         Serial_rxBufferTail     = 0u;
 298:Generated_Source\PSoC4/Serial_UART.c ****         Serial_rxBufferOverflow = 0u;
 299:Generated_Source\PSoC4/Serial_UART.c ****     #endif /* (Serial_INTERNAL_RX_SW_BUFFER_CONST) */
 300:Generated_Source\PSoC4/Serial_UART.c **** 
 301:Generated_Source\PSoC4/Serial_UART.c ****     #if(Serial_INTERNAL_TX_SW_BUFFER_CONST)
 302:Generated_Source\PSoC4/Serial_UART.c ****         Serial_txBufferHead = 0u;
 303:Generated_Source\PSoC4/Serial_UART.c ****         Serial_txBufferTail = 0u;
 304:Generated_Source\PSoC4/Serial_UART.c ****     #endif /* (Serial_INTERNAL_TX_SW_BUFFER_CONST) */
 305:Generated_Source\PSoC4/Serial_UART.c ****     }
  89              		.loc 1 305 0
  90              		@ sp needed
  91 0050 7047     		bx	lr
  92              	.L3:
  93 0052 C046     		.align	2
  94              	.L2:
ARM GAS  C:\Users\GIANLU~1\AppData\Local\Temp\ccMj8ocL.s 			page 8


  95 0054 0F000002 		.word	33554447
  96 0058 00000740 		.word	1074200576
  97 005c 40000740 		.word	1074200640
  98 0060 01000A00 		.word	655361
  99 0064 48000740 		.word	1074200648
 100 0068 07020080 		.word	-2147483129
 101 006c 00030740 		.word	1074201344
 102 0070 04030740 		.word	1074201348
 103 0074 10030740 		.word	1074201360
 104 0078 44000740 		.word	1074200644
 105 007c 07000080 		.word	-2147483641
 106 0080 00020740 		.word	1074201088
 107 0084 04020740 		.word	1074201092
 108 0088 880E0740 		.word	1074204296
 109 008c C80E0740 		.word	1074204360
 110 0090 480F0740 		.word	1074204488
 111 0094 080F0740 		.word	1074204424
 112 0098 C80F0740 		.word	1074204616
 113 009c 880F0740 		.word	1074204552
 114 00a0 00000000 		.word	Serial_IntrTxMask
 115              		.cfi_endproc
 116              	.LFE0:
 117              		.size	Serial_UartInit, .-Serial_UartInit
 118              		.section	.text.Serial_UartPostEnable,"ax",%progbits
 119              		.align	2
 120              		.global	Serial_UartPostEnable
 121              		.code	16
 122              		.thumb_func
 123              		.type	Serial_UartPostEnable, %function
 124              	Serial_UartPostEnable:
 125              	.LFB1:
 306:Generated_Source\PSoC4/Serial_UART.c **** #endif /* (Serial_SCB_MODE_UNCONFIG_CONST_CFG) */
 307:Generated_Source\PSoC4/Serial_UART.c **** 
 308:Generated_Source\PSoC4/Serial_UART.c **** 
 309:Generated_Source\PSoC4/Serial_UART.c **** /*******************************************************************************
 310:Generated_Source\PSoC4/Serial_UART.c **** * Function Name: Serial_UartPostEnable
 311:Generated_Source\PSoC4/Serial_UART.c **** ****************************************************************************//**
 312:Generated_Source\PSoC4/Serial_UART.c **** *
 313:Generated_Source\PSoC4/Serial_UART.c **** *  Restores HSIOM settings for the UART output pins (TX and/or RTS) to be
 314:Generated_Source\PSoC4/Serial_UART.c **** *  controlled by the SCB UART.
 315:Generated_Source\PSoC4/Serial_UART.c **** *
 316:Generated_Source\PSoC4/Serial_UART.c **** *******************************************************************************/
 317:Generated_Source\PSoC4/Serial_UART.c **** void Serial_UartPostEnable(void)
 318:Generated_Source\PSoC4/Serial_UART.c **** {
 126              		.loc 1 318 0
 127              		.cfi_startproc
 128              		@ args = 0, pretend = 0, frame = 0
 129              		@ frame_needed = 0, uses_anonymous_args = 0
 130              		@ link register save eliminated.
 319:Generated_Source\PSoC4/Serial_UART.c **** #if (Serial_SCB_MODE_UNCONFIG_CONST_CFG)
 320:Generated_Source\PSoC4/Serial_UART.c ****     #if (Serial_TX_SDA_MISO_PIN)
 321:Generated_Source\PSoC4/Serial_UART.c ****         if (Serial_CHECK_TX_SDA_MISO_PIN_USED)
 322:Generated_Source\PSoC4/Serial_UART.c ****         {
 323:Generated_Source\PSoC4/Serial_UART.c ****             /* Set SCB UART to drive the output pin */
 324:Generated_Source\PSoC4/Serial_UART.c ****             Serial_SET_HSIOM_SEL(Serial_TX_SDA_MISO_HSIOM_REG, Serial_TX_SDA_MISO_HSIOM_MASK,
 325:Generated_Source\PSoC4/Serial_UART.c ****                                            Serial_TX_SDA_MISO_HSIOM_POS, Serial_TX_SDA_MISO_HSIOM_S
 326:Generated_Source\PSoC4/Serial_UART.c ****         }
ARM GAS  C:\Users\GIANLU~1\AppData\Local\Temp\ccMj8ocL.s 			page 9


 327:Generated_Source\PSoC4/Serial_UART.c ****     #endif /* (Serial_TX_SDA_MISO_PIN_PIN) */
 328:Generated_Source\PSoC4/Serial_UART.c **** 
 329:Generated_Source\PSoC4/Serial_UART.c ****     #if !(Serial_CY_SCBIP_V0 || Serial_CY_SCBIP_V1)
 330:Generated_Source\PSoC4/Serial_UART.c ****         #if (Serial_SS0_PIN)
 331:Generated_Source\PSoC4/Serial_UART.c ****             if (Serial_CHECK_SS0_PIN_USED)
 332:Generated_Source\PSoC4/Serial_UART.c ****             {
 333:Generated_Source\PSoC4/Serial_UART.c ****                 /* Set SCB UART to drive the output pin */
 334:Generated_Source\PSoC4/Serial_UART.c ****                 Serial_SET_HSIOM_SEL(Serial_SS0_HSIOM_REG, Serial_SS0_HSIOM_MASK,
 335:Generated_Source\PSoC4/Serial_UART.c ****                                                Serial_SS0_HSIOM_POS, Serial_SS0_HSIOM_SEL_UART);
 336:Generated_Source\PSoC4/Serial_UART.c ****             }
 337:Generated_Source\PSoC4/Serial_UART.c ****         #endif /* (Serial_SS0_PIN) */
 338:Generated_Source\PSoC4/Serial_UART.c ****     #endif /* !(Serial_CY_SCBIP_V0 || Serial_CY_SCBIP_V1) */
 339:Generated_Source\PSoC4/Serial_UART.c **** 
 340:Generated_Source\PSoC4/Serial_UART.c **** #else
 341:Generated_Source\PSoC4/Serial_UART.c ****     #if (Serial_UART_TX_PIN)
 342:Generated_Source\PSoC4/Serial_UART.c ****          /* Set SCB UART to drive the output pin */
 343:Generated_Source\PSoC4/Serial_UART.c ****         Serial_SET_HSIOM_SEL(Serial_TX_HSIOM_REG, Serial_TX_HSIOM_MASK,
 131              		.loc 1 343 0
 132 0000 0549     		ldr	r1, .L5
 133 0002 0B68     		ldr	r3, [r1]
 134 0004 F022     		movs	r2, #240
 135 0006 9343     		bics	r3, r2
 136 0008 603A     		subs	r2, r2, #96
 137 000a 1343     		orrs	r3, r2
 138 000c 0B60     		str	r3, [r1]
 344:Generated_Source\PSoC4/Serial_UART.c ****                                        Serial_TX_HSIOM_POS, Serial_TX_HSIOM_SEL_UART);
 345:Generated_Source\PSoC4/Serial_UART.c ****     #endif /* (Serial_UART_TX_PIN) */
 346:Generated_Source\PSoC4/Serial_UART.c **** 
 347:Generated_Source\PSoC4/Serial_UART.c ****     #if (Serial_UART_RTS_PIN)
 348:Generated_Source\PSoC4/Serial_UART.c ****         /* Set SCB UART to drive the output pin */
 349:Generated_Source\PSoC4/Serial_UART.c ****         Serial_SET_HSIOM_SEL(Serial_RTS_HSIOM_REG, Serial_RTS_HSIOM_MASK,
 350:Generated_Source\PSoC4/Serial_UART.c ****                                        Serial_RTS_HSIOM_POS, Serial_RTS_HSIOM_SEL_UART);
 351:Generated_Source\PSoC4/Serial_UART.c ****     #endif /* (Serial_UART_RTS_PIN) */
 352:Generated_Source\PSoC4/Serial_UART.c **** #endif /* (Serial_SCB_MODE_UNCONFIG_CONST_CFG) */
 353:Generated_Source\PSoC4/Serial_UART.c **** 
 354:Generated_Source\PSoC4/Serial_UART.c ****     /* Restore TX interrupt sources. */
 355:Generated_Source\PSoC4/Serial_UART.c ****     Serial_SetTxInterruptMode(Serial_IntrTxMask);
 139              		.loc 1 355 0
 140 000e 034B     		ldr	r3, .L5+4
 141 0010 1A88     		ldrh	r2, [r3]
 142 0012 034B     		ldr	r3, .L5+8
 143 0014 1A60     		str	r2, [r3]
 356:Generated_Source\PSoC4/Serial_UART.c **** }
 144              		.loc 1 356 0
 145              		@ sp needed
 146 0016 7047     		bx	lr
 147              	.L6:
 148              		.align	2
 149              	.L5:
 150 0018 0C000140 		.word	1073807372
 151 001c 00000000 		.word	Serial_IntrTxMask
 152 0020 880F0740 		.word	1074204552
 153              		.cfi_endproc
 154              	.LFE1:
 155              		.size	Serial_UartPostEnable, .-Serial_UartPostEnable
 156              		.section	.text.Serial_UartStop,"ax",%progbits
 157              		.align	2
ARM GAS  C:\Users\GIANLU~1\AppData\Local\Temp\ccMj8ocL.s 			page 10


 158              		.global	Serial_UartStop
 159              		.code	16
 160              		.thumb_func
 161              		.type	Serial_UartStop, %function
 162              	Serial_UartStop:
 163              	.LFB2:
 357:Generated_Source\PSoC4/Serial_UART.c **** 
 358:Generated_Source\PSoC4/Serial_UART.c **** 
 359:Generated_Source\PSoC4/Serial_UART.c **** /*******************************************************************************
 360:Generated_Source\PSoC4/Serial_UART.c **** * Function Name: Serial_UartStop
 361:Generated_Source\PSoC4/Serial_UART.c **** ****************************************************************************//**
 362:Generated_Source\PSoC4/Serial_UART.c **** *
 363:Generated_Source\PSoC4/Serial_UART.c **** *  Changes the HSIOM settings for the UART output pins (TX and/or RTS) to keep
 364:Generated_Source\PSoC4/Serial_UART.c **** *  them inactive after the block is disabled. The output pins are controlled by
 365:Generated_Source\PSoC4/Serial_UART.c **** *  the GPIO data register. Also, the function disables the skip start feature
 366:Generated_Source\PSoC4/Serial_UART.c **** *  to not cause it to trigger after the component is enabled.
 367:Generated_Source\PSoC4/Serial_UART.c **** *
 368:Generated_Source\PSoC4/Serial_UART.c **** *******************************************************************************/
 369:Generated_Source\PSoC4/Serial_UART.c **** void Serial_UartStop(void)
 370:Generated_Source\PSoC4/Serial_UART.c **** {
 164              		.loc 1 370 0
 165              		.cfi_startproc
 166              		@ args = 0, pretend = 0, frame = 0
 167              		@ frame_needed = 0, uses_anonymous_args = 0
 168              		@ link register save eliminated.
 371:Generated_Source\PSoC4/Serial_UART.c **** #if(Serial_SCB_MODE_UNCONFIG_CONST_CFG)
 372:Generated_Source\PSoC4/Serial_UART.c ****     #if (Serial_TX_SDA_MISO_PIN)
 373:Generated_Source\PSoC4/Serial_UART.c ****         if (Serial_CHECK_TX_SDA_MISO_PIN_USED)
 374:Generated_Source\PSoC4/Serial_UART.c ****         {
 375:Generated_Source\PSoC4/Serial_UART.c ****             /* Set GPIO to drive output pin */
 376:Generated_Source\PSoC4/Serial_UART.c ****             Serial_SET_HSIOM_SEL(Serial_TX_SDA_MISO_HSIOM_REG, Serial_TX_SDA_MISO_HSIOM_MASK,
 377:Generated_Source\PSoC4/Serial_UART.c ****                                            Serial_TX_SDA_MISO_HSIOM_POS, Serial_TX_SDA_MISO_HSIOM_S
 378:Generated_Source\PSoC4/Serial_UART.c ****         }
 379:Generated_Source\PSoC4/Serial_UART.c ****     #endif /* (Serial_TX_SDA_MISO_PIN_PIN) */
 380:Generated_Source\PSoC4/Serial_UART.c **** 
 381:Generated_Source\PSoC4/Serial_UART.c ****     #if !(Serial_CY_SCBIP_V0 || Serial_CY_SCBIP_V1)
 382:Generated_Source\PSoC4/Serial_UART.c ****         #if (Serial_SS0_PIN)
 383:Generated_Source\PSoC4/Serial_UART.c ****             if (Serial_CHECK_SS0_PIN_USED)
 384:Generated_Source\PSoC4/Serial_UART.c ****             {
 385:Generated_Source\PSoC4/Serial_UART.c ****                 /* Set output pin state after block is disabled */
 386:Generated_Source\PSoC4/Serial_UART.c ****                 Serial_spi_ss0_Write(Serial_GET_UART_RTS_INACTIVE);
 387:Generated_Source\PSoC4/Serial_UART.c **** 
 388:Generated_Source\PSoC4/Serial_UART.c ****                 /* Set GPIO to drive output pin */
 389:Generated_Source\PSoC4/Serial_UART.c ****                 Serial_SET_HSIOM_SEL(Serial_SS0_HSIOM_REG, Serial_SS0_HSIOM_MASK,
 390:Generated_Source\PSoC4/Serial_UART.c ****                                                Serial_SS0_HSIOM_POS, Serial_SS0_HSIOM_SEL_GPIO);
 391:Generated_Source\PSoC4/Serial_UART.c ****             }
 392:Generated_Source\PSoC4/Serial_UART.c ****         #endif /* (Serial_SS0_PIN) */
 393:Generated_Source\PSoC4/Serial_UART.c ****     #endif /* !(Serial_CY_SCBIP_V0 || Serial_CY_SCBIP_V1) */
 394:Generated_Source\PSoC4/Serial_UART.c **** 
 395:Generated_Source\PSoC4/Serial_UART.c **** #else
 396:Generated_Source\PSoC4/Serial_UART.c ****     #if (Serial_UART_TX_PIN)
 397:Generated_Source\PSoC4/Serial_UART.c ****         /* Set GPIO to drive output pin */
 398:Generated_Source\PSoC4/Serial_UART.c ****         Serial_SET_HSIOM_SEL(Serial_TX_HSIOM_REG, Serial_TX_HSIOM_MASK,
 169              		.loc 1 398 0
 170 0000 064A     		ldr	r2, .L8
 171 0002 1368     		ldr	r3, [r2]
 172 0004 F021     		movs	r1, #240
ARM GAS  C:\Users\GIANLU~1\AppData\Local\Temp\ccMj8ocL.s 			page 11


 173 0006 8B43     		bics	r3, r1
 174 0008 1360     		str	r3, [r2]
 399:Generated_Source\PSoC4/Serial_UART.c ****                                        Serial_TX_HSIOM_POS, Serial_TX_HSIOM_SEL_GPIO);
 400:Generated_Source\PSoC4/Serial_UART.c ****     #endif /* (Serial_UART_TX_PIN) */
 401:Generated_Source\PSoC4/Serial_UART.c **** 
 402:Generated_Source\PSoC4/Serial_UART.c ****     #if (Serial_UART_RTS_PIN)
 403:Generated_Source\PSoC4/Serial_UART.c ****         /* Set output pin state after block is disabled */
 404:Generated_Source\PSoC4/Serial_UART.c ****         Serial_rts_Write(Serial_GET_UART_RTS_INACTIVE);
 405:Generated_Source\PSoC4/Serial_UART.c **** 
 406:Generated_Source\PSoC4/Serial_UART.c ****         /* Set GPIO to drive output pin */
 407:Generated_Source\PSoC4/Serial_UART.c ****         Serial_SET_HSIOM_SEL(Serial_RTS_HSIOM_REG, Serial_RTS_HSIOM_MASK,
 408:Generated_Source\PSoC4/Serial_UART.c ****                                        Serial_RTS_HSIOM_POS, Serial_RTS_HSIOM_SEL_GPIO);
 409:Generated_Source\PSoC4/Serial_UART.c ****     #endif /* (Serial_UART_RTS_PIN) */
 410:Generated_Source\PSoC4/Serial_UART.c **** 
 411:Generated_Source\PSoC4/Serial_UART.c **** #endif /* (Serial_SCB_MODE_UNCONFIG_CONST_CFG) */
 412:Generated_Source\PSoC4/Serial_UART.c **** 
 413:Generated_Source\PSoC4/Serial_UART.c **** #if (Serial_UART_WAKE_ENABLE_CONST)
 414:Generated_Source\PSoC4/Serial_UART.c ****     /* Disable skip start feature used for wakeup */
 415:Generated_Source\PSoC4/Serial_UART.c ****     Serial_UART_RX_CTRL_REG &= (uint32) ~Serial_UART_RX_CTRL_SKIP_START;
 416:Generated_Source\PSoC4/Serial_UART.c **** #endif /* (Serial_UART_WAKE_ENABLE_CONST) */
 417:Generated_Source\PSoC4/Serial_UART.c **** 
 418:Generated_Source\PSoC4/Serial_UART.c ****     /* Store TX interrupt sources (exclude level triggered). */
 419:Generated_Source\PSoC4/Serial_UART.c ****     Serial_IntrTxMask = LO16(Serial_GetTxInterruptMode() & Serial_INTR_UART_TX_RESTORE);
 175              		.loc 1 419 0
 176 000a 054B     		ldr	r3, .L8+4
 177 000c 1A68     		ldr	r2, [r3]
 178 000e E423     		movs	r3, #228
 179 0010 DB00     		lsls	r3, r3, #3
 180 0012 1340     		ands	r3, r2
 181 0014 034A     		ldr	r2, .L8+8
 182 0016 1380     		strh	r3, [r2]
 420:Generated_Source\PSoC4/Serial_UART.c **** }
 183              		.loc 1 420 0
 184              		@ sp needed
 185 0018 7047     		bx	lr
 186              	.L9:
 187 001a C046     		.align	2
 188              	.L8:
 189 001c 0C000140 		.word	1073807372
 190 0020 880F0740 		.word	1074204552
 191 0024 00000000 		.word	Serial_IntrTxMask
 192              		.cfi_endproc
 193              	.LFE2:
 194              		.size	Serial_UartStop, .-Serial_UartStop
 195              		.section	.text.Serial_UartSetRxAddress,"ax",%progbits
 196              		.align	2
 197              		.global	Serial_UartSetRxAddress
 198              		.code	16
 199              		.thumb_func
 200              		.type	Serial_UartSetRxAddress, %function
 201              	Serial_UartSetRxAddress:
 202              	.LFB3:
 421:Generated_Source\PSoC4/Serial_UART.c **** 
 422:Generated_Source\PSoC4/Serial_UART.c **** 
 423:Generated_Source\PSoC4/Serial_UART.c **** /*******************************************************************************
 424:Generated_Source\PSoC4/Serial_UART.c **** * Function Name: Serial_UartSetRxAddress
 425:Generated_Source\PSoC4/Serial_UART.c **** ****************************************************************************//**
ARM GAS  C:\Users\GIANLU~1\AppData\Local\Temp\ccMj8ocL.s 			page 12


 426:Generated_Source\PSoC4/Serial_UART.c **** *
 427:Generated_Source\PSoC4/Serial_UART.c **** *  Sets the hardware detectable receiver address for the UART in the
 428:Generated_Source\PSoC4/Serial_UART.c **** *  Multiprocessor mode.
 429:Generated_Source\PSoC4/Serial_UART.c **** *
 430:Generated_Source\PSoC4/Serial_UART.c **** *  \param address: Address for hardware address detection.
 431:Generated_Source\PSoC4/Serial_UART.c **** *
 432:Generated_Source\PSoC4/Serial_UART.c **** *******************************************************************************/
 433:Generated_Source\PSoC4/Serial_UART.c **** void Serial_UartSetRxAddress(uint32 address)
 434:Generated_Source\PSoC4/Serial_UART.c **** {
 203              		.loc 1 434 0
 204              		.cfi_startproc
 205              		@ args = 0, pretend = 0, frame = 0
 206              		@ frame_needed = 0, uses_anonymous_args = 0
 207              		@ link register save eliminated.
 208              	.LVL0:
 435:Generated_Source\PSoC4/Serial_UART.c ****      uint32 matchReg;
 436:Generated_Source\PSoC4/Serial_UART.c **** 
 437:Generated_Source\PSoC4/Serial_UART.c ****     matchReg = Serial_RX_MATCH_REG;
 209              		.loc 1 437 0
 210 0000 034A     		ldr	r2, .L11
 211 0002 1368     		ldr	r3, [r2]
 212              	.LVL1:
 438:Generated_Source\PSoC4/Serial_UART.c **** 
 439:Generated_Source\PSoC4/Serial_UART.c ****     matchReg &= ((uint32) ~Serial_RX_MATCH_ADDR_MASK); /* Clear address bits */
 213              		.loc 1 439 0
 214 0004 FF21     		movs	r1, #255
 215 0006 8B43     		bics	r3, r1
 216              	.LVL2:
 440:Generated_Source\PSoC4/Serial_UART.c ****     matchReg |= ((uint32)  (address & Serial_RX_MATCH_ADDR_MASK)); /* Set address  */
 217              		.loc 1 440 0
 218 0008 0840     		ands	r0, r1
 219              	.LVL3:
 220 000a 1843     		orrs	r0, r3
 221              	.LVL4:
 441:Generated_Source\PSoC4/Serial_UART.c **** 
 442:Generated_Source\PSoC4/Serial_UART.c ****     Serial_RX_MATCH_REG = matchReg;
 222              		.loc 1 442 0
 223 000c 1060     		str	r0, [r2]
 443:Generated_Source\PSoC4/Serial_UART.c **** }
 224              		.loc 1 443 0
 225              		@ sp needed
 226 000e 7047     		bx	lr
 227              	.L12:
 228              		.align	2
 229              	.L11:
 230 0010 10030740 		.word	1074201360
 231              		.cfi_endproc
 232              	.LFE3:
 233              		.size	Serial_UartSetRxAddress, .-Serial_UartSetRxAddress
 234              		.section	.text.Serial_UartSetRxAddressMask,"ax",%progbits
 235              		.align	2
 236              		.global	Serial_UartSetRxAddressMask
 237              		.code	16
 238              		.thumb_func
 239              		.type	Serial_UartSetRxAddressMask, %function
 240              	Serial_UartSetRxAddressMask:
 241              	.LFB4:
ARM GAS  C:\Users\GIANLU~1\AppData\Local\Temp\ccMj8ocL.s 			page 13


 444:Generated_Source\PSoC4/Serial_UART.c **** 
 445:Generated_Source\PSoC4/Serial_UART.c **** 
 446:Generated_Source\PSoC4/Serial_UART.c **** /*******************************************************************************
 447:Generated_Source\PSoC4/Serial_UART.c **** * Function Name: Serial_UartSetRxAddressMask
 448:Generated_Source\PSoC4/Serial_UART.c **** ****************************************************************************//**
 449:Generated_Source\PSoC4/Serial_UART.c **** *
 450:Generated_Source\PSoC4/Serial_UART.c **** *  Sets the hardware address mask for the UART in the Multiprocessor mode.
 451:Generated_Source\PSoC4/Serial_UART.c **** *
 452:Generated_Source\PSoC4/Serial_UART.c **** *  \param addressMask: Address mask.
 453:Generated_Source\PSoC4/Serial_UART.c **** *   - Bit value 0 – excludes bit from address comparison.
 454:Generated_Source\PSoC4/Serial_UART.c **** *   - Bit value 1 – the bit needs to match with the corresponding bit
 455:Generated_Source\PSoC4/Serial_UART.c **** *     of the address.
 456:Generated_Source\PSoC4/Serial_UART.c **** *
 457:Generated_Source\PSoC4/Serial_UART.c **** *******************************************************************************/
 458:Generated_Source\PSoC4/Serial_UART.c **** void Serial_UartSetRxAddressMask(uint32 addressMask)
 459:Generated_Source\PSoC4/Serial_UART.c **** {
 242              		.loc 1 459 0
 243              		.cfi_startproc
 244              		@ args = 0, pretend = 0, frame = 0
 245              		@ frame_needed = 0, uses_anonymous_args = 0
 246              		@ link register save eliminated.
 247              	.LVL5:
 460:Generated_Source\PSoC4/Serial_UART.c ****     uint32 matchReg;
 461:Generated_Source\PSoC4/Serial_UART.c **** 
 462:Generated_Source\PSoC4/Serial_UART.c ****     matchReg = Serial_RX_MATCH_REG;
 248              		.loc 1 462 0
 249 0000 034A     		ldr	r2, .L14
 250 0002 1168     		ldr	r1, [r2]
 251              	.LVL6:
 463:Generated_Source\PSoC4/Serial_UART.c **** 
 464:Generated_Source\PSoC4/Serial_UART.c ****     matchReg &= ((uint32) ~Serial_RX_MATCH_MASK_MASK); /* Clear address mask bits */
 252              		.loc 1 464 0
 253 0004 034B     		ldr	r3, .L14+4
 254 0006 0B40     		ands	r3, r1
 255              	.LVL7:
 465:Generated_Source\PSoC4/Serial_UART.c ****     matchReg |= ((uint32) (addressMask << Serial_RX_MATCH_MASK_POS));
 256              		.loc 1 465 0
 257 0008 0004     		lsls	r0, r0, #16
 258              	.LVL8:
 259 000a 1843     		orrs	r0, r3
 260              	.LVL9:
 466:Generated_Source\PSoC4/Serial_UART.c **** 
 467:Generated_Source\PSoC4/Serial_UART.c ****     Serial_RX_MATCH_REG = matchReg;
 261              		.loc 1 467 0
 262 000c 1060     		str	r0, [r2]
 468:Generated_Source\PSoC4/Serial_UART.c **** }
 263              		.loc 1 468 0
 264              		@ sp needed
 265 000e 7047     		bx	lr
 266              	.L15:
 267              		.align	2
 268              	.L14:
 269 0010 10030740 		.word	1074201360
 270 0014 FFFF00FF 		.word	-16711681
 271              		.cfi_endproc
 272              	.LFE4:
 273              		.size	Serial_UartSetRxAddressMask, .-Serial_UartSetRxAddressMask
ARM GAS  C:\Users\GIANLU~1\AppData\Local\Temp\ccMj8ocL.s 			page 14


 274              		.section	.text.Serial_UartGetChar,"ax",%progbits
 275              		.align	2
 276              		.global	Serial_UartGetChar
 277              		.code	16
 278              		.thumb_func
 279              		.type	Serial_UartGetChar, %function
 280              	Serial_UartGetChar:
 281              	.LFB5:
 469:Generated_Source\PSoC4/Serial_UART.c **** 
 470:Generated_Source\PSoC4/Serial_UART.c **** 
 471:Generated_Source\PSoC4/Serial_UART.c **** #if(Serial_UART_RX_DIRECTION)
 472:Generated_Source\PSoC4/Serial_UART.c ****     /*******************************************************************************
 473:Generated_Source\PSoC4/Serial_UART.c ****     * Function Name: Serial_UartGetChar
 474:Generated_Source\PSoC4/Serial_UART.c ****     ****************************************************************************//**
 475:Generated_Source\PSoC4/Serial_UART.c ****     *
 476:Generated_Source\PSoC4/Serial_UART.c ****     *  Retrieves next data element from receive buffer.
 477:Generated_Source\PSoC4/Serial_UART.c ****     *  This function is designed for ASCII characters and returns a char where
 478:Generated_Source\PSoC4/Serial_UART.c ****     *  1 to 255 are valid characters and 0 indicates an error occurred or no data
 479:Generated_Source\PSoC4/Serial_UART.c ****     *  is present.
 480:Generated_Source\PSoC4/Serial_UART.c ****     *  - RX software buffer is disabled: Returns data element retrieved from RX
 481:Generated_Source\PSoC4/Serial_UART.c ****     *    FIFO.
 482:Generated_Source\PSoC4/Serial_UART.c ****     *  - RX software buffer is enabled: Returns data element from the software
 483:Generated_Source\PSoC4/Serial_UART.c ****     *    receive buffer.
 484:Generated_Source\PSoC4/Serial_UART.c ****     *
 485:Generated_Source\PSoC4/Serial_UART.c ****     *  \return
 486:Generated_Source\PSoC4/Serial_UART.c ****     *   Next data element from the receive buffer. ASCII character values from
 487:Generated_Source\PSoC4/Serial_UART.c ****     *   1 to 255 are valid. A returned zero signifies an error condition or no
 488:Generated_Source\PSoC4/Serial_UART.c ****     *   data available.
 489:Generated_Source\PSoC4/Serial_UART.c ****     *
 490:Generated_Source\PSoC4/Serial_UART.c ****     *  \sideeffect
 491:Generated_Source\PSoC4/Serial_UART.c ****     *   The errors bits may not correspond with reading characters due to
 492:Generated_Source\PSoC4/Serial_UART.c ****     *   RX FIFO and software buffer usage.
 493:Generated_Source\PSoC4/Serial_UART.c ****     *   RX software buffer is enabled: The internal software buffer overflow
 494:Generated_Source\PSoC4/Serial_UART.c ****     *   is not treated as an error condition.
 495:Generated_Source\PSoC4/Serial_UART.c ****     *   Check Serial_rxBufferOverflow to capture that error condition.
 496:Generated_Source\PSoC4/Serial_UART.c ****     *
 497:Generated_Source\PSoC4/Serial_UART.c ****     *******************************************************************************/
 498:Generated_Source\PSoC4/Serial_UART.c ****     uint32 Serial_UartGetChar(void)
 499:Generated_Source\PSoC4/Serial_UART.c ****     {
 282              		.loc 1 499 0
 283              		.cfi_startproc
 284              		@ args = 0, pretend = 0, frame = 0
 285              		@ frame_needed = 0, uses_anonymous_args = 0
 286 0000 10B5     		push	{r4, lr}
 287              		.cfi_def_cfa_offset 8
 288              		.cfi_offset 4, -8
 289              		.cfi_offset 14, -4
 290              	.LVL10:
 500:Generated_Source\PSoC4/Serial_UART.c ****         uint32 rxData = 0u;
 501:Generated_Source\PSoC4/Serial_UART.c **** 
 502:Generated_Source\PSoC4/Serial_UART.c ****         /* Reads data only if there is data to read */
 503:Generated_Source\PSoC4/Serial_UART.c ****         if (0u != Serial_SpiUartGetRxBufferSize())
 291              		.loc 1 503 0
 292 0002 FFF7FEFF 		bl	Serial_SpiUartGetRxBufferSize
 293              	.LVL11:
 294 0006 0028     		cmp	r0, #0
 295 0008 02D0     		beq	.L19
ARM GAS  C:\Users\GIANLU~1\AppData\Local\Temp\ccMj8ocL.s 			page 15


 504:Generated_Source\PSoC4/Serial_UART.c ****         {
 505:Generated_Source\PSoC4/Serial_UART.c ****             rxData = Serial_SpiUartReadRxData();
 296              		.loc 1 505 0
 297 000a FFF7FEFF 		bl	Serial_SpiUartReadRxData
 298              	.LVL12:
 299 000e 00E0     		b	.L17
 300              	.LVL13:
 301              	.L19:
 500:Generated_Source\PSoC4/Serial_UART.c ****         uint32 rxData = 0u;
 302              		.loc 1 500 0
 303 0010 0020     		movs	r0, #0
 304              	.LVL14:
 305              	.L17:
 506:Generated_Source\PSoC4/Serial_UART.c ****         }
 507:Generated_Source\PSoC4/Serial_UART.c **** 
 508:Generated_Source\PSoC4/Serial_UART.c ****         if (Serial_CHECK_INTR_RX(Serial_INTR_RX_ERR))
 306              		.loc 1 508 0
 307 0012 054B     		ldr	r3, .L20
 308 0014 1A68     		ldr	r2, [r3]
 309 0016 D823     		movs	r3, #216
 310 0018 9B00     		lsls	r3, r3, #2
 311 001a 1A42     		tst	r2, r3
 312 001c 03D0     		beq	.L18
 313              	.LVL15:
 509:Generated_Source\PSoC4/Serial_UART.c ****         {
 510:Generated_Source\PSoC4/Serial_UART.c ****             rxData = 0u; /* Error occurred: returns zero */
 511:Generated_Source\PSoC4/Serial_UART.c ****             Serial_ClearRxInterruptSource(Serial_INTR_RX_ERR);
 314              		.loc 1 511 0
 315 001e 1A00     		movs	r2, r3
 316 0020 014B     		ldr	r3, .L20
 317 0022 1A60     		str	r2, [r3]
 510:Generated_Source\PSoC4/Serial_UART.c ****             Serial_ClearRxInterruptSource(Serial_INTR_RX_ERR);
 318              		.loc 1 510 0
 319 0024 0020     		movs	r0, #0
 320              	.LVL16:
 321              	.L18:
 512:Generated_Source\PSoC4/Serial_UART.c ****         }
 513:Generated_Source\PSoC4/Serial_UART.c **** 
 514:Generated_Source\PSoC4/Serial_UART.c ****         return (rxData);
 515:Generated_Source\PSoC4/Serial_UART.c ****     }
 322              		.loc 1 515 0
 323              		@ sp needed
 324 0026 10BD     		pop	{r4, pc}
 325              	.L21:
 326              		.align	2
 327              	.L20:
 328 0028 C00F0740 		.word	1074204608
 329              		.cfi_endproc
 330              	.LFE5:
 331              		.size	Serial_UartGetChar, .-Serial_UartGetChar
 332              		.section	.text.Serial_UartGetByte,"ax",%progbits
 333              		.align	2
 334              		.global	Serial_UartGetByte
 335              		.code	16
 336              		.thumb_func
 337              		.type	Serial_UartGetByte, %function
 338              	Serial_UartGetByte:
ARM GAS  C:\Users\GIANLU~1\AppData\Local\Temp\ccMj8ocL.s 			page 16


 339              	.LFB6:
 516:Generated_Source\PSoC4/Serial_UART.c **** 
 517:Generated_Source\PSoC4/Serial_UART.c **** 
 518:Generated_Source\PSoC4/Serial_UART.c ****     /*******************************************************************************
 519:Generated_Source\PSoC4/Serial_UART.c ****     * Function Name: Serial_UartGetByte
 520:Generated_Source\PSoC4/Serial_UART.c ****     ****************************************************************************//**
 521:Generated_Source\PSoC4/Serial_UART.c ****     *
 522:Generated_Source\PSoC4/Serial_UART.c ****     *  Retrieves the next data element from the receive buffer, returns the
 523:Generated_Source\PSoC4/Serial_UART.c ****     *  received byte and error condition.
 524:Generated_Source\PSoC4/Serial_UART.c ****     *   - The RX software buffer is disabled: returns the data element retrieved
 525:Generated_Source\PSoC4/Serial_UART.c ****     *     from the RX FIFO. Undefined data will be returned if the RX FIFO is
 526:Generated_Source\PSoC4/Serial_UART.c ****     *     empty.
 527:Generated_Source\PSoC4/Serial_UART.c ****     *   - The RX software buffer is enabled: returns data element from the
 528:Generated_Source\PSoC4/Serial_UART.c ****     *     software receive buffer.
 529:Generated_Source\PSoC4/Serial_UART.c ****     *
 530:Generated_Source\PSoC4/Serial_UART.c ****     *  \return
 531:Generated_Source\PSoC4/Serial_UART.c ****     *   Bits 7-0 contain the next data element from the receive buffer and
 532:Generated_Source\PSoC4/Serial_UART.c ****     *   other bits contain the error condition.
 533:Generated_Source\PSoC4/Serial_UART.c ****     *   - Serial_UART_RX_OVERFLOW - Attempt to write to a full
 534:Generated_Source\PSoC4/Serial_UART.c ****     *     receiver FIFO.
 535:Generated_Source\PSoC4/Serial_UART.c ****     *   - Serial_UART_RX_UNDERFLOW    Attempt to read from an empty
 536:Generated_Source\PSoC4/Serial_UART.c ****     *     receiver FIFO.
 537:Generated_Source\PSoC4/Serial_UART.c ****     *   - Serial_UART_RX_FRAME_ERROR - UART framing error detected.
 538:Generated_Source\PSoC4/Serial_UART.c ****     *   - Serial_UART_RX_PARITY_ERROR - UART parity error detected.
 539:Generated_Source\PSoC4/Serial_UART.c ****     *
 540:Generated_Source\PSoC4/Serial_UART.c ****     *  \sideeffect
 541:Generated_Source\PSoC4/Serial_UART.c ****     *   The errors bits may not correspond with reading characters due to
 542:Generated_Source\PSoC4/Serial_UART.c ****     *   RX FIFO and software buffer usage.
 543:Generated_Source\PSoC4/Serial_UART.c ****     *   RX software buffer is enabled: The internal software buffer overflow
 544:Generated_Source\PSoC4/Serial_UART.c ****     *   is not treated as an error condition.
 545:Generated_Source\PSoC4/Serial_UART.c ****     *   Check Serial_rxBufferOverflow to capture that error condition.
 546:Generated_Source\PSoC4/Serial_UART.c ****     *
 547:Generated_Source\PSoC4/Serial_UART.c ****     *******************************************************************************/
 548:Generated_Source\PSoC4/Serial_UART.c ****     uint32 Serial_UartGetByte(void)
 549:Generated_Source\PSoC4/Serial_UART.c ****     {
 340              		.loc 1 549 0
 341              		.cfi_startproc
 342              		@ args = 0, pretend = 0, frame = 0
 343              		@ frame_needed = 0, uses_anonymous_args = 0
 344 0000 10B5     		push	{r4, lr}
 345              		.cfi_def_cfa_offset 8
 346              		.cfi_offset 4, -8
 347              		.cfi_offset 14, -4
 550:Generated_Source\PSoC4/Serial_UART.c ****         uint32 rxData;
 551:Generated_Source\PSoC4/Serial_UART.c ****         uint32 tmpStatus;
 552:Generated_Source\PSoC4/Serial_UART.c **** 
 553:Generated_Source\PSoC4/Serial_UART.c ****         #if (Serial_CHECK_RX_SW_BUFFER)
 554:Generated_Source\PSoC4/Serial_UART.c ****         {
 555:Generated_Source\PSoC4/Serial_UART.c ****             Serial_DisableInt();
 556:Generated_Source\PSoC4/Serial_UART.c ****         }
 557:Generated_Source\PSoC4/Serial_UART.c ****         #endif
 558:Generated_Source\PSoC4/Serial_UART.c **** 
 559:Generated_Source\PSoC4/Serial_UART.c ****         if (0u != Serial_SpiUartGetRxBufferSize())
 348              		.loc 1 559 0
 349 0002 FFF7FEFF 		bl	Serial_SpiUartGetRxBufferSize
 350              	.LVL17:
 351 0006 0028     		cmp	r0, #0
ARM GAS  C:\Users\GIANLU~1\AppData\Local\Temp\ccMj8ocL.s 			page 17


 352 0008 02D0     		beq	.L23
 560:Generated_Source\PSoC4/Serial_UART.c ****         {
 561:Generated_Source\PSoC4/Serial_UART.c ****             /* Enables interrupt to receive more bytes: at least one byte is in
 562:Generated_Source\PSoC4/Serial_UART.c ****             * buffer.
 563:Generated_Source\PSoC4/Serial_UART.c ****             */
 564:Generated_Source\PSoC4/Serial_UART.c ****             #if (Serial_CHECK_RX_SW_BUFFER)
 565:Generated_Source\PSoC4/Serial_UART.c ****             {
 566:Generated_Source\PSoC4/Serial_UART.c ****                 Serial_EnableInt();
 567:Generated_Source\PSoC4/Serial_UART.c ****             }
 568:Generated_Source\PSoC4/Serial_UART.c ****             #endif
 569:Generated_Source\PSoC4/Serial_UART.c **** 
 570:Generated_Source\PSoC4/Serial_UART.c ****             /* Get received byte */
 571:Generated_Source\PSoC4/Serial_UART.c ****             rxData = Serial_SpiUartReadRxData();
 353              		.loc 1 571 0
 354 000a FFF7FEFF 		bl	Serial_SpiUartReadRxData
 355              	.LVL18:
 356 000e 01E0     		b	.L24
 357              	.LVL19:
 358              	.L23:
 572:Generated_Source\PSoC4/Serial_UART.c ****         }
 573:Generated_Source\PSoC4/Serial_UART.c ****         else
 574:Generated_Source\PSoC4/Serial_UART.c ****         {
 575:Generated_Source\PSoC4/Serial_UART.c ****             /* Reads a byte directly from RX FIFO: underflow is raised in the
 576:Generated_Source\PSoC4/Serial_UART.c ****             * case of empty. Otherwise the first received byte will be read.
 577:Generated_Source\PSoC4/Serial_UART.c ****             */
 578:Generated_Source\PSoC4/Serial_UART.c ****             rxData = Serial_RX_FIFO_RD_REG;
 359              		.loc 1 578 0
 360 0010 064B     		ldr	r3, .L25
 361 0012 1868     		ldr	r0, [r3]
 362              	.LVL20:
 363              	.L24:
 579:Generated_Source\PSoC4/Serial_UART.c **** 
 580:Generated_Source\PSoC4/Serial_UART.c **** 
 581:Generated_Source\PSoC4/Serial_UART.c ****             /* Enables interrupt to receive more bytes. */
 582:Generated_Source\PSoC4/Serial_UART.c ****             #if (Serial_CHECK_RX_SW_BUFFER)
 583:Generated_Source\PSoC4/Serial_UART.c ****             {
 584:Generated_Source\PSoC4/Serial_UART.c **** 
 585:Generated_Source\PSoC4/Serial_UART.c ****                 /* The byte has been read from RX FIFO. Clear RX interrupt to
 586:Generated_Source\PSoC4/Serial_UART.c ****                 * not involve interrupt handler when RX FIFO is empty.
 587:Generated_Source\PSoC4/Serial_UART.c ****                 */
 588:Generated_Source\PSoC4/Serial_UART.c ****                 Serial_ClearRxInterruptSource(Serial_INTR_RX_NOT_EMPTY);
 589:Generated_Source\PSoC4/Serial_UART.c **** 
 590:Generated_Source\PSoC4/Serial_UART.c ****                 Serial_EnableInt();
 591:Generated_Source\PSoC4/Serial_UART.c ****             }
 592:Generated_Source\PSoC4/Serial_UART.c ****             #endif
 593:Generated_Source\PSoC4/Serial_UART.c ****         }
 594:Generated_Source\PSoC4/Serial_UART.c **** 
 595:Generated_Source\PSoC4/Serial_UART.c ****         /* Get and clear RX error mask */
 596:Generated_Source\PSoC4/Serial_UART.c ****         tmpStatus = (Serial_GetRxInterruptSource() & Serial_INTR_RX_ERR);
 364              		.loc 1 596 0
 365 0014 064A     		ldr	r2, .L25+4
 366 0016 1368     		ldr	r3, [r2]
 367              	.LVL21:
 597:Generated_Source\PSoC4/Serial_UART.c ****         Serial_ClearRxInterruptSource(Serial_INTR_RX_ERR);
 368              		.loc 1 597 0
 369 0018 D821     		movs	r1, #216
 370 001a 8900     		lsls	r1, r1, #2
ARM GAS  C:\Users\GIANLU~1\AppData\Local\Temp\ccMj8ocL.s 			page 18


 371 001c 1160     		str	r1, [r2]
 598:Generated_Source\PSoC4/Serial_UART.c **** 
 599:Generated_Source\PSoC4/Serial_UART.c ****         /* Puts together data and error status:
 600:Generated_Source\PSoC4/Serial_UART.c ****         * MP mode and accept address: 9th bit is set to notify mark.
 601:Generated_Source\PSoC4/Serial_UART.c ****         */
 602:Generated_Source\PSoC4/Serial_UART.c ****         rxData |= ((uint32) (tmpStatus << 8u));
 372              		.loc 1 602 0
 373 001e 1B02     		lsls	r3, r3, #8
 374              	.LVL22:
 375 0020 D822     		movs	r2, #216
 376 0022 9202     		lsls	r2, r2, #10
 377 0024 1340     		ands	r3, r2
 378 0026 1843     		orrs	r0, r3
 379              	.LVL23:
 603:Generated_Source\PSoC4/Serial_UART.c **** 
 604:Generated_Source\PSoC4/Serial_UART.c ****         return (rxData);
 605:Generated_Source\PSoC4/Serial_UART.c ****     }
 380              		.loc 1 605 0
 381              		@ sp needed
 382 0028 10BD     		pop	{r4, pc}
 383              	.L26:
 384 002a C046     		.align	2
 385              	.L25:
 386 002c 40030740 		.word	1074201408
 387 0030 C00F0740 		.word	1074204608
 388              		.cfi_endproc
 389              	.LFE6:
 390              		.size	Serial_UartGetByte, .-Serial_UartGetByte
 391              		.section	.text.Serial_UartPutString,"ax",%progbits
 392              		.align	2
 393              		.global	Serial_UartPutString
 394              		.code	16
 395              		.thumb_func
 396              		.type	Serial_UartPutString, %function
 397              	Serial_UartPutString:
 398              	.LFB7:
 606:Generated_Source\PSoC4/Serial_UART.c **** 
 607:Generated_Source\PSoC4/Serial_UART.c **** 
 608:Generated_Source\PSoC4/Serial_UART.c ****     #if !(Serial_CY_SCBIP_V0 || Serial_CY_SCBIP_V1)
 609:Generated_Source\PSoC4/Serial_UART.c ****         /*******************************************************************************
 610:Generated_Source\PSoC4/Serial_UART.c ****         * Function Name: Serial_UartSetRtsPolarity
 611:Generated_Source\PSoC4/Serial_UART.c ****         ****************************************************************************//**
 612:Generated_Source\PSoC4/Serial_UART.c ****         *
 613:Generated_Source\PSoC4/Serial_UART.c ****         *  Sets active polarity of RTS output signal.
 614:Generated_Source\PSoC4/Serial_UART.c ****         *  Only available for PSoC 4100 BLE / PSoC 4200 BLE / PSoC 4100M / PSoC 4200M /
 615:Generated_Source\PSoC4/Serial_UART.c ****         *  PSoC 4200L / PSoC 4000S / PSoC 4100S / PSoC Analog Coprocessor devices.
 616:Generated_Source\PSoC4/Serial_UART.c ****         *
 617:Generated_Source\PSoC4/Serial_UART.c ****         *  \param polarity: Active polarity of RTS output signal.
 618:Generated_Source\PSoC4/Serial_UART.c ****         *   - Serial_UART_RTS_ACTIVE_LOW  - RTS signal is active low.
 619:Generated_Source\PSoC4/Serial_UART.c ****         *   - Serial_UART_RTS_ACTIVE_HIGH - RTS signal is active high.
 620:Generated_Source\PSoC4/Serial_UART.c ****         *
 621:Generated_Source\PSoC4/Serial_UART.c ****         *******************************************************************************/
 622:Generated_Source\PSoC4/Serial_UART.c ****         void Serial_UartSetRtsPolarity(uint32 polarity)
 623:Generated_Source\PSoC4/Serial_UART.c ****         {
 624:Generated_Source\PSoC4/Serial_UART.c ****             if(0u != polarity)
 625:Generated_Source\PSoC4/Serial_UART.c ****             {
 626:Generated_Source\PSoC4/Serial_UART.c ****                 Serial_UART_FLOW_CTRL_REG |= (uint32)  Serial_UART_FLOW_CTRL_RTS_POLARITY;
ARM GAS  C:\Users\GIANLU~1\AppData\Local\Temp\ccMj8ocL.s 			page 19


 627:Generated_Source\PSoC4/Serial_UART.c ****             }
 628:Generated_Source\PSoC4/Serial_UART.c ****             else
 629:Generated_Source\PSoC4/Serial_UART.c ****             {
 630:Generated_Source\PSoC4/Serial_UART.c ****                 Serial_UART_FLOW_CTRL_REG &= (uint32) ~Serial_UART_FLOW_CTRL_RTS_POLARITY;
 631:Generated_Source\PSoC4/Serial_UART.c ****             }
 632:Generated_Source\PSoC4/Serial_UART.c ****         }
 633:Generated_Source\PSoC4/Serial_UART.c **** 
 634:Generated_Source\PSoC4/Serial_UART.c **** 
 635:Generated_Source\PSoC4/Serial_UART.c ****         /*******************************************************************************
 636:Generated_Source\PSoC4/Serial_UART.c ****         * Function Name: Serial_UartSetRtsFifoLevel
 637:Generated_Source\PSoC4/Serial_UART.c ****         ****************************************************************************//**
 638:Generated_Source\PSoC4/Serial_UART.c ****         *
 639:Generated_Source\PSoC4/Serial_UART.c ****         *  Sets level in the RX FIFO for RTS signal activation.
 640:Generated_Source\PSoC4/Serial_UART.c ****         *  While the RX FIFO has fewer entries than the RX FIFO level the RTS signal
 641:Generated_Source\PSoC4/Serial_UART.c ****         *  remains active, otherwise the RTS signal becomes inactive.
 642:Generated_Source\PSoC4/Serial_UART.c ****         *  Only available for PSoC 4100 BLE / PSoC 4200 BLE / PSoC 4100M / PSoC 4200M /
 643:Generated_Source\PSoC4/Serial_UART.c ****         *  PSoC 4200L / PSoC 4000S / PSoC 4100S / PSoC Analog Coprocessor devices.
 644:Generated_Source\PSoC4/Serial_UART.c ****         *
 645:Generated_Source\PSoC4/Serial_UART.c ****         *  \param level: Level in the RX FIFO for RTS signal activation.
 646:Generated_Source\PSoC4/Serial_UART.c ****         *   The range of valid level values is between 0 and RX FIFO depth - 1.
 647:Generated_Source\PSoC4/Serial_UART.c ****         *   Setting level value to 0 disables RTS signal activation.
 648:Generated_Source\PSoC4/Serial_UART.c ****         *
 649:Generated_Source\PSoC4/Serial_UART.c ****         *******************************************************************************/
 650:Generated_Source\PSoC4/Serial_UART.c ****         void Serial_UartSetRtsFifoLevel(uint32 level)
 651:Generated_Source\PSoC4/Serial_UART.c ****         {
 652:Generated_Source\PSoC4/Serial_UART.c ****             uint32 uartFlowCtrl;
 653:Generated_Source\PSoC4/Serial_UART.c **** 
 654:Generated_Source\PSoC4/Serial_UART.c ****             uartFlowCtrl = Serial_UART_FLOW_CTRL_REG;
 655:Generated_Source\PSoC4/Serial_UART.c **** 
 656:Generated_Source\PSoC4/Serial_UART.c ****             uartFlowCtrl &= ((uint32) ~Serial_UART_FLOW_CTRL_TRIGGER_LEVEL_MASK); /* Clear level ma
 657:Generated_Source\PSoC4/Serial_UART.c ****             uartFlowCtrl |= ((uint32) (Serial_UART_FLOW_CTRL_TRIGGER_LEVEL_MASK & level));
 658:Generated_Source\PSoC4/Serial_UART.c **** 
 659:Generated_Source\PSoC4/Serial_UART.c ****             Serial_UART_FLOW_CTRL_REG = uartFlowCtrl;
 660:Generated_Source\PSoC4/Serial_UART.c ****         }
 661:Generated_Source\PSoC4/Serial_UART.c ****     #endif /* !(Serial_CY_SCBIP_V0 || Serial_CY_SCBIP_V1) */
 662:Generated_Source\PSoC4/Serial_UART.c **** 
 663:Generated_Source\PSoC4/Serial_UART.c **** #endif /* (Serial_UART_RX_DIRECTION) */
 664:Generated_Source\PSoC4/Serial_UART.c **** 
 665:Generated_Source\PSoC4/Serial_UART.c **** 
 666:Generated_Source\PSoC4/Serial_UART.c **** #if(Serial_UART_TX_DIRECTION)
 667:Generated_Source\PSoC4/Serial_UART.c ****     /*******************************************************************************
 668:Generated_Source\PSoC4/Serial_UART.c ****     * Function Name: Serial_UartPutString
 669:Generated_Source\PSoC4/Serial_UART.c ****     ****************************************************************************//**
 670:Generated_Source\PSoC4/Serial_UART.c ****     *
 671:Generated_Source\PSoC4/Serial_UART.c ****     *  Places a NULL terminated string in the transmit buffer to be sent at the
 672:Generated_Source\PSoC4/Serial_UART.c ****     *  next available bus time.
 673:Generated_Source\PSoC4/Serial_UART.c ****     *  This function is blocking and waits until there is a space available to put
 674:Generated_Source\PSoC4/Serial_UART.c ****     *  requested data in transmit buffer.
 675:Generated_Source\PSoC4/Serial_UART.c ****     *
 676:Generated_Source\PSoC4/Serial_UART.c ****     *  \param string: pointer to the null terminated string array to be placed in the
 677:Generated_Source\PSoC4/Serial_UART.c ****     *   transmit buffer.
 678:Generated_Source\PSoC4/Serial_UART.c ****     *
 679:Generated_Source\PSoC4/Serial_UART.c ****     *******************************************************************************/
 680:Generated_Source\PSoC4/Serial_UART.c ****     void Serial_UartPutString(const char8 string[])
 681:Generated_Source\PSoC4/Serial_UART.c ****     {
 399              		.loc 1 681 0
 400              		.cfi_startproc
ARM GAS  C:\Users\GIANLU~1\AppData\Local\Temp\ccMj8ocL.s 			page 20


 401              		@ args = 0, pretend = 0, frame = 0
 402              		@ frame_needed = 0, uses_anonymous_args = 0
 403              	.LVL24:
 404 0000 70B5     		push	{r4, r5, r6, lr}
 405              		.cfi_def_cfa_offset 16
 406              		.cfi_offset 4, -16
 407              		.cfi_offset 5, -12
 408              		.cfi_offset 6, -8
 409              		.cfi_offset 14, -4
 410 0002 0500     		movs	r5, r0
 411              	.LVL25:
 682:Generated_Source\PSoC4/Serial_UART.c ****         uint32 bufIndex;
 683:Generated_Source\PSoC4/Serial_UART.c **** 
 684:Generated_Source\PSoC4/Serial_UART.c ****         bufIndex = 0u;
 412              		.loc 1 684 0
 413 0004 0024     		movs	r4, #0
 685:Generated_Source\PSoC4/Serial_UART.c **** 
 686:Generated_Source\PSoC4/Serial_UART.c ****         /* Blocks the control flow until all data has been sent */
 687:Generated_Source\PSoC4/Serial_UART.c ****         while(string[bufIndex] != ((char8) 0))
 414              		.loc 1 687 0
 415 0006 02E0     		b	.L28
 416              	.LVL26:
 417              	.L29:
 688:Generated_Source\PSoC4/Serial_UART.c ****         {
 689:Generated_Source\PSoC4/Serial_UART.c ****             Serial_UartPutChar((uint32) string[bufIndex]);
 418              		.loc 1 689 0
 419 0008 FFF7FEFF 		bl	Serial_SpiUartWriteTxData
 420              	.LVL27:
 690:Generated_Source\PSoC4/Serial_UART.c ****             bufIndex++;
 421              		.loc 1 690 0
 422 000c 0134     		adds	r4, r4, #1
 423              	.LVL28:
 424              	.L28:
 687:Generated_Source\PSoC4/Serial_UART.c ****         {
 425              		.loc 1 687 0
 426 000e 285D     		ldrb	r0, [r5, r4]
 427 0010 0028     		cmp	r0, #0
 428 0012 F9D1     		bne	.L29
 691:Generated_Source\PSoC4/Serial_UART.c ****         }
 692:Generated_Source\PSoC4/Serial_UART.c ****     }
 429              		.loc 1 692 0
 430              		@ sp needed
 431              	.LVL29:
 432              	.LVL30:
 433 0014 70BD     		pop	{r4, r5, r6, pc}
 434              		.cfi_endproc
 435              	.LFE7:
 436              		.size	Serial_UartPutString, .-Serial_UartPutString
 437 0016 C046     		.section	.text.Serial_UartPutCRLF,"ax",%progbits
 438              		.align	2
 439              		.global	Serial_UartPutCRLF
 440              		.code	16
 441              		.thumb_func
 442              		.type	Serial_UartPutCRLF, %function
 443              	Serial_UartPutCRLF:
 444              	.LFB8:
 693:Generated_Source\PSoC4/Serial_UART.c **** 
ARM GAS  C:\Users\GIANLU~1\AppData\Local\Temp\ccMj8ocL.s 			page 21


 694:Generated_Source\PSoC4/Serial_UART.c **** 
 695:Generated_Source\PSoC4/Serial_UART.c ****     /*******************************************************************************
 696:Generated_Source\PSoC4/Serial_UART.c ****     * Function Name: Serial_UartPutCRLF
 697:Generated_Source\PSoC4/Serial_UART.c ****     ****************************************************************************//**
 698:Generated_Source\PSoC4/Serial_UART.c ****     *
 699:Generated_Source\PSoC4/Serial_UART.c ****     *  Places byte of data followed by a carriage return (0x0D) and line feed
 700:Generated_Source\PSoC4/Serial_UART.c ****     *  (0x0A) in the transmit buffer.
 701:Generated_Source\PSoC4/Serial_UART.c ****     *  This function is blocking and waits until there is a space available to put
 702:Generated_Source\PSoC4/Serial_UART.c ****     *  all requested data in transmit buffer.
 703:Generated_Source\PSoC4/Serial_UART.c ****     *
 704:Generated_Source\PSoC4/Serial_UART.c ****     *  \param txDataByte: the data to be transmitted.
 705:Generated_Source\PSoC4/Serial_UART.c ****     *
 706:Generated_Source\PSoC4/Serial_UART.c ****     *******************************************************************************/
 707:Generated_Source\PSoC4/Serial_UART.c ****     void Serial_UartPutCRLF(uint32 txDataByte)
 708:Generated_Source\PSoC4/Serial_UART.c ****     {
 445              		.loc 1 708 0
 446              		.cfi_startproc
 447              		@ args = 0, pretend = 0, frame = 0
 448              		@ frame_needed = 0, uses_anonymous_args = 0
 449              	.LVL31:
 450 0000 10B5     		push	{r4, lr}
 451              		.cfi_def_cfa_offset 8
 452              		.cfi_offset 4, -8
 453              		.cfi_offset 14, -4
 709:Generated_Source\PSoC4/Serial_UART.c ****         Serial_UartPutChar(txDataByte);  /* Blocks control flow until all data has been sent */
 454              		.loc 1 709 0
 455 0002 FFF7FEFF 		bl	Serial_SpiUartWriteTxData
 456              	.LVL32:
 710:Generated_Source\PSoC4/Serial_UART.c ****         Serial_UartPutChar(0x0Du);       /* Blocks control flow until all data has been sent */
 457              		.loc 1 710 0
 458 0006 0D20     		movs	r0, #13
 459 0008 FFF7FEFF 		bl	Serial_SpiUartWriteTxData
 460              	.LVL33:
 711:Generated_Source\PSoC4/Serial_UART.c ****         Serial_UartPutChar(0x0Au);       /* Blocks control flow until all data has been sent */
 461              		.loc 1 711 0
 462 000c 0A20     		movs	r0, #10
 463 000e FFF7FEFF 		bl	Serial_SpiUartWriteTxData
 464              	.LVL34:
 712:Generated_Source\PSoC4/Serial_UART.c ****     }
 465              		.loc 1 712 0
 466              		@ sp needed
 467 0012 10BD     		pop	{r4, pc}
 468              		.cfi_endproc
 469              	.LFE8:
 470              		.size	Serial_UartPutCRLF, .-Serial_UartPutCRLF
 471              		.section	.text.Serial_UartSendBreakBlocking,"ax",%progbits
 472              		.align	2
 473              		.global	Serial_UartSendBreakBlocking
 474              		.code	16
 475              		.thumb_func
 476              		.type	Serial_UartSendBreakBlocking, %function
 477              	Serial_UartSendBreakBlocking:
 478              	.LFB9:
 713:Generated_Source\PSoC4/Serial_UART.c **** 
 714:Generated_Source\PSoC4/Serial_UART.c **** 
 715:Generated_Source\PSoC4/Serial_UART.c ****     #if !(Serial_CY_SCBIP_V0 || Serial_CY_SCBIP_V1)
 716:Generated_Source\PSoC4/Serial_UART.c ****         /*******************************************************************************
ARM GAS  C:\Users\GIANLU~1\AppData\Local\Temp\ccMj8ocL.s 			page 22


 717:Generated_Source\PSoC4/Serial_UART.c ****         * Function Name: SerialSCB_UartEnableCts
 718:Generated_Source\PSoC4/Serial_UART.c ****         ****************************************************************************//**
 719:Generated_Source\PSoC4/Serial_UART.c ****         *
 720:Generated_Source\PSoC4/Serial_UART.c ****         *  Enables usage of CTS input signal by the UART transmitter.
 721:Generated_Source\PSoC4/Serial_UART.c ****         *  Only available for PSoC 4100 BLE / PSoC 4200 BLE / PSoC 4100M / PSoC 4200M /
 722:Generated_Source\PSoC4/Serial_UART.c ****         *  PSoC 4200L / PSoC 4000S / PSoC 4100S / PSoC Analog Coprocessor devices.
 723:Generated_Source\PSoC4/Serial_UART.c ****         *
 724:Generated_Source\PSoC4/Serial_UART.c ****         *******************************************************************************/
 725:Generated_Source\PSoC4/Serial_UART.c ****         void Serial_UartEnableCts(void)
 726:Generated_Source\PSoC4/Serial_UART.c ****         {
 727:Generated_Source\PSoC4/Serial_UART.c ****             Serial_UART_FLOW_CTRL_REG |= (uint32)  Serial_UART_FLOW_CTRL_CTS_ENABLE;
 728:Generated_Source\PSoC4/Serial_UART.c ****         }
 729:Generated_Source\PSoC4/Serial_UART.c **** 
 730:Generated_Source\PSoC4/Serial_UART.c **** 
 731:Generated_Source\PSoC4/Serial_UART.c ****         /*******************************************************************************
 732:Generated_Source\PSoC4/Serial_UART.c ****         * Function Name: Serial_UartDisableCts
 733:Generated_Source\PSoC4/Serial_UART.c ****         ****************************************************************************//**
 734:Generated_Source\PSoC4/Serial_UART.c ****         *
 735:Generated_Source\PSoC4/Serial_UART.c ****         *  Disables usage of CTS input signal by the UART transmitter.
 736:Generated_Source\PSoC4/Serial_UART.c ****         *  Only available for PSoC 4100 BLE / PSoC 4200 BLE / PSoC 4100M / PSoC 4200M /
 737:Generated_Source\PSoC4/Serial_UART.c ****         *  PSoC 4200L / PSoC 4000S / PSoC 4100S / PSoC Analog Coprocessor devices.
 738:Generated_Source\PSoC4/Serial_UART.c ****         *
 739:Generated_Source\PSoC4/Serial_UART.c ****         *******************************************************************************/
 740:Generated_Source\PSoC4/Serial_UART.c ****         void Serial_UartDisableCts(void)
 741:Generated_Source\PSoC4/Serial_UART.c ****         {
 742:Generated_Source\PSoC4/Serial_UART.c ****             Serial_UART_FLOW_CTRL_REG &= (uint32) ~Serial_UART_FLOW_CTRL_CTS_ENABLE;
 743:Generated_Source\PSoC4/Serial_UART.c ****         }
 744:Generated_Source\PSoC4/Serial_UART.c **** 
 745:Generated_Source\PSoC4/Serial_UART.c **** 
 746:Generated_Source\PSoC4/Serial_UART.c ****         /*******************************************************************************
 747:Generated_Source\PSoC4/Serial_UART.c ****         * Function Name: Serial_UartSetCtsPolarity
 748:Generated_Source\PSoC4/Serial_UART.c ****         ****************************************************************************//**
 749:Generated_Source\PSoC4/Serial_UART.c ****         *
 750:Generated_Source\PSoC4/Serial_UART.c ****         *  Sets active polarity of CTS input signal.
 751:Generated_Source\PSoC4/Serial_UART.c ****         *  Only available for PSoC 4100 BLE / PSoC 4200 BLE / PSoC 4100M / PSoC 4200M /
 752:Generated_Source\PSoC4/Serial_UART.c ****         *  PSoC 4200L / PSoC 4000S / PSoC 4100S / PSoC Analog Coprocessor devices.
 753:Generated_Source\PSoC4/Serial_UART.c ****         *
 754:Generated_Source\PSoC4/Serial_UART.c ****         * \param
 755:Generated_Source\PSoC4/Serial_UART.c ****         * polarity: Active polarity of CTS output signal.
 756:Generated_Source\PSoC4/Serial_UART.c ****         *   - Serial_UART_CTS_ACTIVE_LOW  - CTS signal is active low.
 757:Generated_Source\PSoC4/Serial_UART.c ****         *   - Serial_UART_CTS_ACTIVE_HIGH - CTS signal is active high.
 758:Generated_Source\PSoC4/Serial_UART.c ****         *
 759:Generated_Source\PSoC4/Serial_UART.c ****         *******************************************************************************/
 760:Generated_Source\PSoC4/Serial_UART.c ****         void Serial_UartSetCtsPolarity(uint32 polarity)
 761:Generated_Source\PSoC4/Serial_UART.c ****         {
 762:Generated_Source\PSoC4/Serial_UART.c ****             if (0u != polarity)
 763:Generated_Source\PSoC4/Serial_UART.c ****             {
 764:Generated_Source\PSoC4/Serial_UART.c ****                 Serial_UART_FLOW_CTRL_REG |= (uint32)  Serial_UART_FLOW_CTRL_CTS_POLARITY;
 765:Generated_Source\PSoC4/Serial_UART.c ****             }
 766:Generated_Source\PSoC4/Serial_UART.c ****             else
 767:Generated_Source\PSoC4/Serial_UART.c ****             {
 768:Generated_Source\PSoC4/Serial_UART.c ****                 Serial_UART_FLOW_CTRL_REG &= (uint32) ~Serial_UART_FLOW_CTRL_CTS_POLARITY;
 769:Generated_Source\PSoC4/Serial_UART.c ****             }
 770:Generated_Source\PSoC4/Serial_UART.c ****         }
 771:Generated_Source\PSoC4/Serial_UART.c ****     #endif /* !(Serial_CY_SCBIP_V0 || Serial_CY_SCBIP_V1) */
 772:Generated_Source\PSoC4/Serial_UART.c **** 
 773:Generated_Source\PSoC4/Serial_UART.c **** 
ARM GAS  C:\Users\GIANLU~1\AppData\Local\Temp\ccMj8ocL.s 			page 23


 774:Generated_Source\PSoC4/Serial_UART.c ****     /*******************************************************************************
 775:Generated_Source\PSoC4/Serial_UART.c ****     * Function Name: Serial_UartSendBreakBlocking
 776:Generated_Source\PSoC4/Serial_UART.c ****     ****************************************************************************//**
 777:Generated_Source\PSoC4/Serial_UART.c ****     *
 778:Generated_Source\PSoC4/Serial_UART.c ****     * Sends a break condition (logic low) of specified width on UART TX line.
 779:Generated_Source\PSoC4/Serial_UART.c ****     * Blocks until break is completed. Only call this function when UART TX FIFO
 780:Generated_Source\PSoC4/Serial_UART.c ****     * and shifter are empty.
 781:Generated_Source\PSoC4/Serial_UART.c ****     *
 782:Generated_Source\PSoC4/Serial_UART.c ****     * \param breakWidth
 783:Generated_Source\PSoC4/Serial_UART.c ****     * Width of break condition. Valid range is 4 to 16 bits.
 784:Generated_Source\PSoC4/Serial_UART.c ****     *
 785:Generated_Source\PSoC4/Serial_UART.c ****     * \note
 786:Generated_Source\PSoC4/Serial_UART.c ****     * Before sending break all UART TX interrupt sources are disabled. The state
 787:Generated_Source\PSoC4/Serial_UART.c ****     * of UART TX interrupt sources is restored before function returns.
 788:Generated_Source\PSoC4/Serial_UART.c ****     *
 789:Generated_Source\PSoC4/Serial_UART.c ****     * \sideeffect
 790:Generated_Source\PSoC4/Serial_UART.c ****     * If this function is called while there is data in the TX FIFO or shifter that
 791:Generated_Source\PSoC4/Serial_UART.c ****     * data will be shifted out in packets the size of breakWidth.
 792:Generated_Source\PSoC4/Serial_UART.c ****     *
 793:Generated_Source\PSoC4/Serial_UART.c ****     *******************************************************************************/
 794:Generated_Source\PSoC4/Serial_UART.c ****     void Serial_UartSendBreakBlocking(uint32 breakWidth)
 795:Generated_Source\PSoC4/Serial_UART.c ****     {
 479              		.loc 1 795 0
 480              		.cfi_startproc
 481              		@ args = 0, pretend = 0, frame = 0
 482              		@ frame_needed = 0, uses_anonymous_args = 0
 483              	.LVL35:
 484 0000 70B5     		push	{r4, r5, r6, lr}
 485              		.cfi_def_cfa_offset 16
 486              		.cfi_offset 4, -16
 487              		.cfi_offset 5, -12
 488              		.cfi_offset 6, -8
 489              		.cfi_offset 14, -4
 490 0002 0300     		movs	r3, r0
 796:Generated_Source\PSoC4/Serial_UART.c ****         uint32 txCtrlReg;
 797:Generated_Source\PSoC4/Serial_UART.c ****         uint32 txIntrReg;
 798:Generated_Source\PSoC4/Serial_UART.c **** 
 799:Generated_Source\PSoC4/Serial_UART.c ****         /* Disable all UART TX interrupt source and clear UART TX Done history */
 800:Generated_Source\PSoC4/Serial_UART.c ****         txIntrReg = Serial_GetTxInterruptMode();
 491              		.loc 1 800 0
 492 0004 0F4A     		ldr	r2, .L33
 493 0006 1568     		ldr	r5, [r2]
 494              	.LVL36:
 801:Generated_Source\PSoC4/Serial_UART.c ****         Serial_SetTxInterruptMode(0u);
 495              		.loc 1 801 0
 496 0008 0024     		movs	r4, #0
 497 000a 1460     		str	r4, [r2]
 802:Generated_Source\PSoC4/Serial_UART.c ****         Serial_ClearTxInterruptSource(Serial_INTR_TX_UART_DONE);
 498              		.loc 1 802 0
 499 000c 8021     		movs	r1, #128
 500 000e 8900     		lsls	r1, r1, #2
 501 0010 0D4A     		ldr	r2, .L33+4
 502 0012 1160     		str	r1, [r2]
 803:Generated_Source\PSoC4/Serial_UART.c **** 
 804:Generated_Source\PSoC4/Serial_UART.c ****         /* Store TX CTRL configuration */
 805:Generated_Source\PSoC4/Serial_UART.c ****         txCtrlReg = Serial_TX_CTRL_REG;
 503              		.loc 1 805 0
ARM GAS  C:\Users\GIANLU~1\AppData\Local\Temp\ccMj8ocL.s 			page 24


 504 0014 0D4A     		ldr	r2, .L33+8
 505 0016 1668     		ldr	r6, [r2]
 506              	.LVL37:
 806:Generated_Source\PSoC4/Serial_UART.c **** 
 807:Generated_Source\PSoC4/Serial_UART.c ****         /* Set break width */
 808:Generated_Source\PSoC4/Serial_UART.c ****         Serial_TX_CTRL_REG = (Serial_TX_CTRL_REG & (uint32) ~Serial_TX_CTRL_DATA_WIDTH_MASK) |
 507              		.loc 1 808 0
 508 0018 1168     		ldr	r1, [r2]
 509 001a 0F20     		movs	r0, #15
 510              	.LVL38:
 511 001c 8143     		bics	r1, r0
 809:Generated_Source\PSoC4/Serial_UART.c ****                                         Serial_GET_TX_CTRL_DATA_WIDTH(breakWidth);
 512              		.loc 1 809 0
 513 001e 013B     		subs	r3, r3, #1
 514              	.LVL39:
 515 0020 1840     		ands	r0, r3
 808:Generated_Source\PSoC4/Serial_UART.c ****                                         Serial_GET_TX_CTRL_DATA_WIDTH(breakWidth);
 516              		.loc 1 808 0
 517 0022 0843     		orrs	r0, r1
 518 0024 1060     		str	r0, [r2]
 810:Generated_Source\PSoC4/Serial_UART.c **** 
 811:Generated_Source\PSoC4/Serial_UART.c ****         /* Generate break */
 812:Generated_Source\PSoC4/Serial_UART.c ****         Serial_TX_FIFO_WR_REG = 0u;
 519              		.loc 1 812 0
 520 0026 0A4B     		ldr	r3, .L33+12
 521              	.LVL40:
 522 0028 1C60     		str	r4, [r3]
 523              	.L32:
 813:Generated_Source\PSoC4/Serial_UART.c **** 
 814:Generated_Source\PSoC4/Serial_UART.c ****         /* Wait for break completion */
 815:Generated_Source\PSoC4/Serial_UART.c ****         while (0u == (Serial_GetTxInterruptSource() & Serial_INTR_TX_UART_DONE))
 524              		.loc 1 815 0 discriminator 1
 525 002a 074B     		ldr	r3, .L33+4
 526 002c 1B68     		ldr	r3, [r3]
 527 002e 9B05     		lsls	r3, r3, #22
 528 0030 FBD5     		bpl	.L32
 816:Generated_Source\PSoC4/Serial_UART.c ****         {
 817:Generated_Source\PSoC4/Serial_UART.c ****         }
 818:Generated_Source\PSoC4/Serial_UART.c **** 
 819:Generated_Source\PSoC4/Serial_UART.c ****         /* Clear all UART TX interrupt sources to  */
 820:Generated_Source\PSoC4/Serial_UART.c ****         Serial_ClearTxInterruptSource(Serial_INTR_TX_ALL);
 529              		.loc 1 820 0
 530 0032 084A     		ldr	r2, .L33+16
 531 0034 044B     		ldr	r3, .L33+4
 532 0036 1A60     		str	r2, [r3]
 821:Generated_Source\PSoC4/Serial_UART.c **** 
 822:Generated_Source\PSoC4/Serial_UART.c ****         /* Restore TX interrupt sources and data width */
 823:Generated_Source\PSoC4/Serial_UART.c ****         Serial_TX_CTRL_REG = txCtrlReg;
 533              		.loc 1 823 0
 534 0038 044B     		ldr	r3, .L33+8
 535 003a 1E60     		str	r6, [r3]
 824:Generated_Source\PSoC4/Serial_UART.c ****         Serial_SetTxInterruptMode(txIntrReg);
 536              		.loc 1 824 0
 537 003c 014B     		ldr	r3, .L33
 538 003e 1D60     		str	r5, [r3]
 825:Generated_Source\PSoC4/Serial_UART.c ****     }
 539              		.loc 1 825 0
ARM GAS  C:\Users\GIANLU~1\AppData\Local\Temp\ccMj8ocL.s 			page 25


 540              		@ sp needed
 541              	.LVL41:
 542              	.LVL42:
 543 0040 70BD     		pop	{r4, r5, r6, pc}
 544              	.L34:
 545 0042 C046     		.align	2
 546              	.L33:
 547 0044 880F0740 		.word	1074204552
 548 0048 800F0740 		.word	1074204544
 549 004c 00020740 		.word	1074201088
 550 0050 40020740 		.word	1074201152
 551 0054 F3070000 		.word	2035
 552              		.cfi_endproc
 553              	.LFE9:
 554              		.size	Serial_UartSendBreakBlocking, .-Serial_UartSendBreakBlocking
 555              		.text
 556              	.Letext0:
 557              		.file 2 "Generated_Source\\PSoC4/cytypes.h"
 558              		.file 3 "Generated_Source\\PSoC4\\Serial_SPI_UART.h"
 559              		.file 4 "Generated_Source\\PSoC4\\Serial_PVT.h"